                                      1 ;--------------------------------------------------------
                                      2 ; File Created by SDCC : free open source ANSI-C Compiler
                                      3 ; Version 4.1.6 #12539 (MINGW32)
                                      4 ;--------------------------------------------------------
                                      5 	.module main
                                      6 	.optsdcc -mgbz80
                                      7 	
                                      8 ;--------------------------------------------------------
                                      9 ; Public variables in this module
                                     10 ;--------------------------------------------------------
                                     11 	.globl _main
                                     12 	.globl _performtDelay
                                     13 	.globl _enemyAttack
                                     14 	.globl _enemyHealhState
                                     15 	.globl _shootArrow
                                     16 	.globl _makecollision
                                     17 	.globl _updateAnim
                                     18 	.globl _set_sprite_data
                                     19 	.globl _set_bkg_submap
                                     20 	.globl _set_bkg_data
                                     21 	.globl _wait_vbl_done
                                     22 	.globl _joypad
                                     23 	.globl _speedR
                                     24 	.globl _from
                                     25 	.globl _shot
                                     26 	.globl _counterR
                                     27 	.globl _offset
                                     28 	.globl _animation_tiles2
                                     29 	.globl _animation_tiles
                                     30 	.globl _onAnim
                                     31 	.globl _town_001_map
                                     32 	.globl _town_001_t
                                     33 	.globl _Main_sprites
                                     34 	.globl _faceing
                                     35 	.globl _alive
                                     36 	.globl _eHealth
                                     37 	.globl _ii
                                     38 	.globl _joy
                                     39 	.globl _ePosY
                                     40 	.globl _ePosX
                                     41 	.globl _arrowS
                                     42 	.globl _pPosY
                                     43 	.globl _pPosX
                                     44 	.globl _frame_count
                                     45 	.globl _animation_counter
                                     46 	.globl _tile_anim_count
                                     47 ;--------------------------------------------------------
                                     48 ; special function registers
                                     49 ;--------------------------------------------------------
                                     50 ;--------------------------------------------------------
                                     51 ; ram data
                                     52 ;--------------------------------------------------------
                                     53 	.area _DATA
      000000                         54 _tile_anim_count::
      000000                         55 	.ds 1
      000001                         56 _animation_counter::
      000001                         57 	.ds 1
      000002                         58 _frame_count::
      000002                         59 	.ds 1
      000003                         60 _pPosX::
      000003                         61 	.ds 1
      000004                         62 _pPosY::
      000004                         63 	.ds 1
      000005                         64 _arrowS::
      000005                         65 	.ds 1
      000006                         66 _ePosX::
      000006                         67 	.ds 1
      000007                         68 _ePosY::
      000007                         69 	.ds 1
      000008                         70 _joy::
      000008                         71 	.ds 1
      000009                         72 _ii::
      000009                         73 	.ds 1
      00000A                         74 _eHealth::
      00000A                         75 	.ds 1
      00000B                         76 _alive::
      00000B                         77 	.ds 1
      00000C                         78 _faceing::
      00000C                         79 	.ds 1
                                     80 ;--------------------------------------------------------
                                     81 ; ram data
                                     82 ;--------------------------------------------------------
                                     83 	.area _INITIALIZED
      000000                         84 _Main_sprites::
      000000                         85 	.ds 1280
      000500                         86 _town_001_t::
      000500                         87 	.ds 1200
      0009B0                         88 _town_001_map::
      0009B0                         89 	.ds 576
      000BF0                         90 _onAnim::
      000BF0                         91 	.ds 1
      000BF1                         92 _animation_tiles::
      000BF1                         93 	.ds 2
      000BF3                         94 _animation_tiles2::
      000BF3                         95 	.ds 2
      000BF5                         96 _offset::
      000BF5                         97 	.ds 1
      000BF6                         98 _counterR::
      000BF6                         99 	.ds 1
      000BF7                        100 _shot::
      000BF7                        101 	.ds 1
      000BF8                        102 _from::
      000BF8                        103 	.ds 1
      000BF9                        104 _speedR::
      000BF9                        105 	.ds 5
                                    106 ;--------------------------------------------------------
                                    107 ; absolute external ram data
                                    108 ;--------------------------------------------------------
                                    109 	.area _DABS (ABS)
                                    110 ;--------------------------------------------------------
                                    111 ; global & static initialisations
                                    112 ;--------------------------------------------------------
                                    113 	.area _HOME
                                    114 	.area _GSINIT
                                    115 	.area _GSFINAL
                                    116 	.area _GSINIT
                                    117 ;--------------------------------------------------------
                                    118 ; Home
                                    119 ;--------------------------------------------------------
                                    120 	.area _HOME
                                    121 	.area _HOME
                                    122 ;--------------------------------------------------------
                                    123 ; code
                                    124 ;--------------------------------------------------------
                                    125 	.area _CODE
                                    126 ;anim_control.c:15: void updateAnim(){
                                    127 ;	---------------------------------
                                    128 ; Function updateAnim
                                    129 ; ---------------------------------
      000000                        130 _updateAnim::
                                    131 ;anim_control.c:16: frame_count++;
      000000 21r02r00               132 	ld	hl, #_frame_count
      000003 34                     133 	inc	(hl)
                                    134 ;anim_control.c:19: if (frame_count >= FRAMES_TILL_ANIM_UPDATE) {
      000004 7E                     135 	ld	a, (hl)
      000005 D6 02                  136 	sub	a, #0x02
      000007 38 35                  137 	jr	C, 00104$
                                    138 ;anim_control.c:22: frame_count = 0;
      000009 36 00                  139 	ld	(hl), #0x00
                                    140 ;anim_control.c:25: animation_counter++;
      00000B 21r01r00               141 	ld	hl, #_animation_counter
      00000E 34                     142 	inc	(hl)
                                    143 ;anim_control.c:26: if (animation_counter >= ANIM_COUNT_TILES){
      00000F 7E                     144 	ld	a, (hl)
      000010 D6 02                  145 	sub	a, #0x02
      000012 38 02                  146 	jr	C, 00102$
                                    147 ;anim_control.c:27: animation_counter = 0;}
      000014 36 00                  148 	ld	(hl), #0x00
      000016                        149 00102$:
                                    150 ;anim_control.c:30: set_sprite_tile(0, animation_tiles[animation_counter]);
      000016 01rF1r0B               151 	ld	bc, #_animation_tiles+0
      000019 79                     152 	ld	a, c
      00001A 21r01r00               153 	ld	hl, #_animation_counter
      00001D 86                     154 	add	a, (hl)
      00001E 4F                     155 	ld	c, a
      00001F 30 01                  156 	jr	NC, 00128$
      000021 04                     157 	inc	b
      000022                        158 00128$:
      000022 0A                     159 	ld	a, (bc)
      000023 4F                     160 	ld	c, a
                                    161 ;c:/gbdk/include/gb/gb.h:1447: shadow_OAM[nb].tile=tile;
      000024 21r02r00               162 	ld	hl, #(_shadow_OAM + 2)
      000027 71                     163 	ld	(hl), c
                                    164 ;anim_control.c:31: set_sprite_tile(1, animation_tiles2[animation_counter]);
      000028 01rF3r0B               165 	ld	bc, #_animation_tiles2+0
      00002B 79                     166 	ld	a, c
      00002C 21r01r00               167 	ld	hl, #_animation_counter
      00002F 86                     168 	add	a, (hl)
      000030 4F                     169 	ld	c, a
      000031 30 01                  170 	jr	NC, 00129$
      000033 04                     171 	inc	b
      000034                        172 00129$:
      000034 0A                     173 	ld	a, (bc)
      000035 4F                     174 	ld	c, a
                                    175 ;c:/gbdk/include/gb/gb.h:1447: shadow_OAM[nb].tile=tile;
      000036 21r06r00               176 	ld	hl, #(_shadow_OAM + 6)
      000039 71                     177 	ld	(hl), c
                                    178 ;anim_control.c:32: tile_anim_count++;
      00003A 21r00r00               179 	ld	hl, #_tile_anim_count
      00003D 34                     180 	inc	(hl)
      00003E                        181 00104$:
                                    182 ;anim_control.c:34: if(tile_anim_count>=3){
      00003E FAr00r00               183 	ld	a, (#_tile_anim_count)
      000041 D6 03                  184 	sub	a, #0x03
      000043 D8                     185 	ret	C
                                    186 ;anim_control.c:35: onAnim=0;
      000044 21rF0r0B               187 	ld	hl, #_onAnim
      000047 36 00                  188 	ld	(hl), #0x00
                                    189 ;c:/gbdk/include/gb/gb.h:1447: shadow_OAM[nb].tile=tile;
      000049 21r02r00               190 	ld	hl, #(_shadow_OAM + 2)
      00004C 36 00                  191 	ld	(hl), #0x00
      00004E 21r06r00               192 	ld	hl, #(_shadow_OAM + 6)
      000051 36 02                  193 	ld	(hl), #0x02
                                    194 ;anim_control.c:38: tile_anim_count=0;
      000053 21r00r00               195 	ld	hl, #_tile_anim_count
      000056 36 00                  196 	ld	(hl), #0x00
                                    197 ;anim_control.c:41: }
      000058 C9                     198 	ret
                                    199 ;main.c:18: UBYTE makecollision(uint8_t pX, uint8_t pY, uint8_t eX, uint8_t eY){
                                    200 ;	---------------------------------
                                    201 ; Function makecollision
                                    202 ; ---------------------------------
      000059                        203 _makecollision::
      000059 E8 F8                  204 	add	sp, #-8
                                    205 ;main.c:19: return (pX >= eX && pX <= eX + 16) && (pY >= eY && pY <= eY + 8) || (eX >= pX && eX <= pX + 16) && (eY >= pY && eY <= pY + 16);
      00005B F8 0C                  206 	ldhl	sp,	#12
      00005D 7E                     207 	ld	a, (hl)
      00005E F8 00                  208 	ldhl	sp,	#0
      000060 22                     209 	ld	(hl+), a
      000061 36 00                  210 	ld	(hl), #0x00
      000063 F8 0A                  211 	ldhl	sp,	#10
      000065 7E                     212 	ld	a, (hl)
      000066 F8 02                  213 	ldhl	sp,	#2
      000068 22                     214 	ld	(hl+), a
      000069 36 00                  215 	ld	(hl), #0x00
      00006B F8 0D                  216 	ldhl	sp,	#13
      00006D 7E                     217 	ld	a, (hl)
      00006E F8 04                  218 	ldhl	sp,	#4
      000070 22                     219 	ld	(hl+), a
      000071 36 00                  220 	ld	(hl), #0x00
      000073 F8 0B                  221 	ldhl	sp,	#11
      000075 7E                     222 	ld	a, (hl)
      000076 F8 06                  223 	ldhl	sp,	#6
      000078 22                     224 	ld	(hl+), a
      000079 36 00                  225 	ld	(hl), #0x00
      00007B F8 0A                  226 	ldhl	sp,	#10
      00007D 2A                     227 	ld	a, (hl+)
      00007E 23                     228 	inc	hl
      00007F 96                     229 	sub	a, (hl)
      000080 38 50                  230 	jr	C, 00108$
      000082 D1                     231 	pop	de
      000083 D5                     232 	push	de
      000084 21 10 00               233 	ld	hl, #0x0010
      000087 19                     234 	add	hl, de
      000088 4D                     235 	ld	c, l
      000089 44                     236 	ld	b, h
      00008A F8 02                  237 	ldhl	sp,	#2
      00008C 79                     238 	ld	a, c
      00008D 96                     239 	sub	a, (hl)
      00008E 23                     240 	inc	hl
      00008F 78                     241 	ld	a, b
      000090 9E                     242 	sbc	a, (hl)
      000091 78                     243 	ld	a, b
      000092 57                     244 	ld	d, a
      000093 CB 7E                  245 	bit	7, (hl)
      000095 28 07                  246 	jr	Z, 00152$
      000097 CB 7A                  247 	bit	7, d
      000099 20 08                  248 	jr	NZ, 00153$
      00009B BF                     249 	cp	a, a
      00009C 18 05                  250 	jr	00153$
      00009E                        251 00152$:
      00009E CB 7A                  252 	bit	7, d
      0000A0 28 01                  253 	jr	Z, 00153$
      0000A2 37                     254 	scf
      0000A3                        255 00153$:
      0000A3 38 2D                  256 	jr	C, 00108$
      0000A5 F8 0B                  257 	ldhl	sp,	#11
      0000A7 2A                     258 	ld	a, (hl+)
      0000A8 23                     259 	inc	hl
      0000A9 96                     260 	sub	a, (hl)
      0000AA 38 26                  261 	jr	C, 00108$
      0000AC F8 04                  262 	ldhl	sp,#4
      0000AE 2A                     263 	ld	a, (hl+)
      0000AF 5F                     264 	ld	e, a
      0000B0 56                     265 	ld	d, (hl)
      0000B1 21 08 00               266 	ld	hl, #0x0008
      0000B4 19                     267 	add	hl, de
      0000B5 4D                     268 	ld	c, l
      0000B6 44                     269 	ld	b, h
      0000B7 F8 06                  270 	ldhl	sp,	#6
      0000B9 79                     271 	ld	a, c
      0000BA 96                     272 	sub	a, (hl)
      0000BB 23                     273 	inc	hl
      0000BC 78                     274 	ld	a, b
      0000BD 9E                     275 	sbc	a, (hl)
      0000BE 78                     276 	ld	a, b
      0000BF 57                     277 	ld	d, a
      0000C0 CB 7E                  278 	bit	7, (hl)
      0000C2 28 07                  279 	jr	Z, 00154$
      0000C4 CB 7A                  280 	bit	7, d
      0000C6 20 08                  281 	jr	NZ, 00155$
      0000C8 BF                     282 	cp	a, a
      0000C9 18 05                  283 	jr	00155$
      0000CB                        284 00154$:
      0000CB CB 7A                  285 	bit	7, d
      0000CD 28 01                  286 	jr	Z, 00155$
      0000CF 37                     287 	scf
      0000D0                        288 00155$:
      0000D0 30 6B                  289 	jr	NC, 00104$
      0000D2                        290 00108$:
      0000D2 F8 0C                  291 	ldhl	sp,	#12
      0000D4 3A                     292 	ld	a, (hl-)
      0000D5 2B                     293 	dec	hl
      0000D6 96                     294 	sub	a, (hl)
      0000D7 38 60                  295 	jr	C, 00103$
      0000D9 F8 02                  296 	ldhl	sp,#2
      0000DB 2A                     297 	ld	a, (hl+)
      0000DC 5F                     298 	ld	e, a
      0000DD 56                     299 	ld	d, (hl)
      0000DE 21 10 00               300 	ld	hl, #0x0010
      0000E1 19                     301 	add	hl, de
      0000E2 4D                     302 	ld	c, l
      0000E3 44                     303 	ld	b, h
      0000E4 F8 00                  304 	ldhl	sp,	#0
      0000E6 79                     305 	ld	a, c
      0000E7 96                     306 	sub	a, (hl)
      0000E8 23                     307 	inc	hl
      0000E9 78                     308 	ld	a, b
      0000EA 9E                     309 	sbc	a, (hl)
      0000EB 78                     310 	ld	a, b
      0000EC 57                     311 	ld	d, a
      0000ED CB 7E                  312 	bit	7, (hl)
      0000EF 28 07                  313 	jr	Z, 00156$
      0000F1 CB 7A                  314 	bit	7, d
      0000F3 20 08                  315 	jr	NZ, 00157$
      0000F5 BF                     316 	cp	a, a
      0000F6 18 05                  317 	jr	00157$
      0000F8                        318 00156$:
      0000F8 CB 7A                  319 	bit	7, d
      0000FA 28 01                  320 	jr	Z, 00157$
      0000FC 37                     321 	scf
      0000FD                        322 00157$:
      0000FD 38 3A                  323 	jr	C, 00103$
      0000FF F8 0D                  324 	ldhl	sp,	#13
      000101 3A                     325 	ld	a, (hl-)
      000102 2B                     326 	dec	hl
      000103 96                     327 	sub	a, (hl)
      000104 38 33                  328 	jr	C, 00103$
      000106 F8 06                  329 	ldhl	sp,#6
      000108 2A                     330 	ld	a, (hl+)
      000109 5F                     331 	ld	e, a
      00010A 56                     332 	ld	d, (hl)
      00010B 21 10 00               333 	ld	hl, #0x0010
      00010E 19                     334 	add	hl, de
      00010F E5                     335 	push	hl
      000110 7D                     336 	ld	a, l
      000111 F8 04                  337 	ldhl	sp,	#4
      000113 77                     338 	ld	(hl), a
      000114 E1                     339 	pop	hl
      000115 7C                     340 	ld	a, h
      000116 F8 03                  341 	ldhl	sp,	#3
      000118 77                     342 	ld	(hl), a
      000119 F8 02                  343 	ldhl	sp,	#2
      00011B 5D                     344 	ld	e, l
      00011C 54                     345 	ld	d, h
      00011D F8 04                  346 	ldhl	sp,	#4
      00011F 1A                     347 	ld	a, (de)
      000120 13                     348 	inc	de
      000121 96                     349 	sub	a, (hl)
      000122 23                     350 	inc	hl
      000123 1A                     351 	ld	a, (de)
      000124 9E                     352 	sbc	a, (hl)
      000125 1A                     353 	ld	a, (de)
      000126 57                     354 	ld	d, a
      000127 CB 7E                  355 	bit	7, (hl)
      000129 28 07                  356 	jr	Z, 00158$
      00012B CB 7A                  357 	bit	7, d
      00012D 20 08                  358 	jr	NZ, 00159$
      00012F BF                     359 	cp	a, a
      000130 18 05                  360 	jr	00159$
      000132                        361 00158$:
      000132 CB 7A                  362 	bit	7, d
      000134 28 01                  363 	jr	Z, 00159$
      000136 37                     364 	scf
      000137                        365 00159$:
      000137 30 04                  366 	jr	NC, 00104$
      000139                        367 00103$:
      000139 1E 00                  368 	ld	e, #0x00
      00013B 18 02                  369 	jr	00105$
      00013D                        370 00104$:
      00013D 1E 01                  371 	ld	e, #0x01
      00013F                        372 00105$:
                                    373 ;main.c:20: }
      00013F E8 08                  374 	add	sp, #8
      000141 C9                     375 	ret
                                    376 ;main.c:22: void shootArrow(){ //necesita correcion, la flecha ya dispara cuando el jugador aprieta el boton. Requiere de aparecer en
                                    377 ;	---------------------------------
                                    378 ; Function shootArrow
                                    379 ; ---------------------------------
      000142                        380 _shootArrow::
                                    381 ;main.c:24: if(shot==1){
      000142 FArF7r0B               382 	ld	a, (#_shot)
      000145 3D                     383 	dec	a
      000146 C0                     384 	ret	NZ
                                    385 ;main.c:27: if(counterR<5){
      000147 21rF6r0B               386 	ld	hl, #_counterR
      00014A 7E                     387 	ld	a, (hl)
      00014B D6 05                  388 	sub	a, #0x05
      00014D 30 01                  389 	jr	NC, 00102$
                                    390 ;main.c:28: counterR++;
      00014F 34                     391 	inc	(hl)
      000150                        392 00102$:
                                    393 ;main.c:32: arrowS = arrowS + speedR[counterR];
      000150 21r05r00               394 	ld	hl, #_arrowS
      000153 4E                     395 	ld	c, (hl)
                                    396 ;main.c:30: if(faceing==1){
      000154 FAr0Cr00               397 	ld	a, (#_faceing)
      000157 3D                     398 	dec	a
      000158 20 6F                  399 	jr	NZ, 00108$
                                    400 ;main.c:32: arrowS = arrowS + speedR[counterR];
      00015A 11rF9r0B               401 	ld	de, #_speedR+0
      00015D 7B                     402 	ld	a, e
      00015E 21rF6r0B               403 	ld	hl, #_counterR
      000161 86                     404 	add	a, (hl)
      000162 5F                     405 	ld	e, a
      000163 30 01                  406 	jr	NC, 00158$
      000165 14                     407 	inc	d
      000166                        408 00158$:
      000166 1A                     409 	ld	a, (de)
      000167 81                     410 	add	a, c
      000168 EAr05r00               411 	ld	(#_arrowS),a
                                    412 ;c:/gbdk/include/gb/gb.h:1503: return shadow_OAM[nb].prop;
      00016B FAr0Fr00               413 	ld	a, (#(_shadow_OAM + 15) + 0)
                                    414 ;main.c:33: set_sprite_prop(3,get_sprite_prop(3) & ~S_FLIPX);
      00016E 4F                     415 	ld	c, a
      00016F CB A9                  416 	res	5, c
                                    417 ;c:/gbdk/include/gb/gb.h:1493: shadow_OAM[nb].prop=prop;
      000171 21r0Fr00               418 	ld	hl, #(_shadow_OAM + 15)
      000174 71                     419 	ld	(hl), c
                                    420 ;main.c:34: move_sprite(3,pPosX + arrowS,pPosY); 
      000175 21r04r00               421 	ld	hl, #_pPosY
      000178 4E                     422 	ld	c, (hl)
      000179 FAr03r00               423 	ld	a, (#_pPosX)
      00017C 21r05r00               424 	ld	hl, #_arrowS
      00017F 86                     425 	add	a, (hl)
      000180 47                     426 	ld	b, a
                                    427 ;c:/gbdk/include/gb/gb.h:1520: OAM_item_t * itm = &shadow_OAM[nb];
      000181 21r0Cr00               428 	ld	hl, #(_shadow_OAM + 12)
                                    429 ;c:/gbdk/include/gb/gb.h:1521: itm->y=y, itm->x=x;
      000184 79                     430 	ld	a, c
      000185 22                     431 	ld	(hl+), a
      000186 70                     432 	ld	(hl), b
                                    433 ;main.c:35: if(makecollision(pPosX + arrowS,pPosY,ePosX+12,ePosY)){
      000187 FAr06r00               434 	ld	a, (#_ePosX)
      00018A C6 0C                  435 	add	a, #0x0c
      00018C 47                     436 	ld	b, a
      00018D FAr03r00               437 	ld	a, (#_pPosX)
      000190 21r05r00               438 	ld	hl, #_arrowS
      000193 86                     439 	add	a, (hl)
      000194 21r07r00               440 	ld	hl, #_ePosY
      000197 66                     441 	ld	h, (hl)
                                    442 ;	spillPairReg hl
                                    443 ;	spillPairReg hl
      000198 68                     444 	ld	l, b
      000199 E5                     445 	push	hl
      00019A 21r04r00               446 	ld	hl, #_pPosY
      00019D 66                     447 	ld	h, (hl)
                                    448 ;	spillPairReg hl
                                    449 ;	spillPairReg hl
      00019E E5                     450 	push	hl
      00019F 33                     451 	inc	sp
      0001A0 F5                     452 	push	af
      0001A1 33                     453 	inc	sp
      0001A2 CDr59r00               454 	call	_makecollision
      0001A5 E8 04                  455 	add	sp, #4
      0001A7 7B                     456 	ld	a, e
      0001A8 B7                     457 	or	a, a
      0001A9 CAr32r02               458 	jp	Z, 00109$
                                    459 ;main.c:36: shot=0;
      0001AC 21rF7r0B               460 	ld	hl, #_shot
      0001AF 36 00                  461 	ld	(hl), #0x00
                                    462 ;main.c:37: counterR=0;
      0001B1 21rF6r0B               463 	ld	hl, #_counterR
      0001B4 36 00                  464 	ld	(hl), #0x00
                                    465 ;c:/gbdk/include/gb/gb.h:1520: OAM_item_t * itm = &shadow_OAM[nb];
      0001B6 01r0Cr00               466 	ld	bc, #(_shadow_OAM + 12)
                                    467 ;c:/gbdk/include/gb/gb.h:1521: itm->y=y, itm->x=x;
      0001B9 AF                     468 	xor	a, a
      0001BA 02                     469 	ld	(bc), a
      0001BB 03                     470 	inc	bc
      0001BC AF                     471 	xor	a, a
      0001BD 02                     472 	ld	(bc), a
                                    473 ;main.c:39: arrowS=0;
      0001BE 21r05r00               474 	ld	hl, #_arrowS
      0001C1 36 00                  475 	ld	(hl), #0x00
                                    476 ;main.c:40: eHealth++;
      0001C3 21r0Ar00               477 	ld	hl, #_eHealth
      0001C6 34                     478 	inc	(hl)
      0001C7 18 69                  479 	jr	00109$
      0001C9                        480 00108$:
                                    481 ;main.c:45: arrowS = arrowS - speedR[counterR];
      0001C9 11rF9r0B               482 	ld	de, #_speedR+0
      0001CC 7B                     483 	ld	a, e
      0001CD 21rF6r0B               484 	ld	hl, #_counterR
      0001D0 86                     485 	add	a, (hl)
      0001D1 5F                     486 	ld	e, a
      0001D2 30 01                  487 	jr	NC, 00159$
      0001D4 14                     488 	inc	d
      0001D5                        489 00159$:
      0001D5 1A                     490 	ld	a, (de)
      0001D6 47                     491 	ld	b, a
      0001D7 79                     492 	ld	a, c
      0001D8 90                     493 	sub	a, b
      0001D9 EAr05r00               494 	ld	(#_arrowS),a
                                    495 ;c:/gbdk/include/gb/gb.h:1493: shadow_OAM[nb].prop=prop;
      0001DC 21r0Fr00               496 	ld	hl, #(_shadow_OAM + 15)
      0001DF 36 20                  497 	ld	(hl), #0x20
                                    498 ;main.c:47: move_sprite(3,pPosX + arrowS,pPosY);
      0001E1 21r04r00               499 	ld	hl, #_pPosY
      0001E4 46                     500 	ld	b, (hl)
      0001E5 FAr03r00               501 	ld	a, (#_pPosX)
      0001E8 21r05r00               502 	ld	hl, #_arrowS
      0001EB 86                     503 	add	a, (hl)
      0001EC 4F                     504 	ld	c, a
                                    505 ;c:/gbdk/include/gb/gb.h:1520: OAM_item_t * itm = &shadow_OAM[nb];
      0001ED 21r0Cr00               506 	ld	hl, #(_shadow_OAM + 12)
                                    507 ;c:/gbdk/include/gb/gb.h:1521: itm->y=y, itm->x=x;
      0001F0 78                     508 	ld	a, b
      0001F1 22                     509 	ld	(hl+), a
      0001F2 71                     510 	ld	(hl), c
                                    511 ;main.c:48: if(makecollision(pPosX + arrowS,pPosY,ePosX+12,ePosY)){
      0001F3 FAr06r00               512 	ld	a, (#_ePosX)
      0001F6 C6 0C                  513 	add	a, #0x0c
      0001F8 47                     514 	ld	b, a
      0001F9 FAr03r00               515 	ld	a, (#_pPosX)
      0001FC 21r05r00               516 	ld	hl, #_arrowS
      0001FF 86                     517 	add	a, (hl)
      000200 21r07r00               518 	ld	hl, #_ePosY
      000203 66                     519 	ld	h, (hl)
                                    520 ;	spillPairReg hl
                                    521 ;	spillPairReg hl
      000204 68                     522 	ld	l, b
      000205 E5                     523 	push	hl
      000206 21r04r00               524 	ld	hl, #_pPosY
      000209 66                     525 	ld	h, (hl)
                                    526 ;	spillPairReg hl
                                    527 ;	spillPairReg hl
      00020A E5                     528 	push	hl
      00020B 33                     529 	inc	sp
      00020C F5                     530 	push	af
      00020D 33                     531 	inc	sp
      00020E CDr59r00               532 	call	_makecollision
      000211 E8 04                  533 	add	sp, #4
      000213 7B                     534 	ld	a, e
      000214 B7                     535 	or	a, a
      000215 28 1B                  536 	jr	Z, 00109$
                                    537 ;main.c:49: shot=0;
      000217 21rF7r0B               538 	ld	hl, #_shot
      00021A 36 00                  539 	ld	(hl), #0x00
                                    540 ;main.c:50: counterR=0;
      00021C 21rF6r0B               541 	ld	hl, #_counterR
      00021F 36 00                  542 	ld	(hl), #0x00
                                    543 ;c:/gbdk/include/gb/gb.h:1520: OAM_item_t * itm = &shadow_OAM[nb];
      000221 01r0Cr00               544 	ld	bc, #(_shadow_OAM + 12)
                                    545 ;c:/gbdk/include/gb/gb.h:1521: itm->y=y, itm->x=x;
      000224 AF                     546 	xor	a, a
      000225 02                     547 	ld	(bc), a
      000226 03                     548 	inc	bc
      000227 AF                     549 	xor	a, a
      000228 02                     550 	ld	(bc), a
                                    551 ;main.c:52: arrowS=0;
      000229 21r05r00               552 	ld	hl, #_arrowS
      00022C 36 00                  553 	ld	(hl), #0x00
                                    554 ;main.c:53: eHealth++;
      00022E 21r0Ar00               555 	ld	hl, #_eHealth
      000231 34                     556 	inc	(hl)
      000232                        557 00109$:
                                    558 ;main.c:56: if(counterR>=5){
      000232 FArF6r0B               559 	ld	a, (#_counterR)
      000235 D6 05                  560 	sub	a, #0x05
      000237 D8                     561 	ret	C
                                    562 ;c:/gbdk/include/gb/gb.h:1520: OAM_item_t * itm = &shadow_OAM[nb];
      000238 01r0Cr00               563 	ld	bc, #(_shadow_OAM + 12)
                                    564 ;c:/gbdk/include/gb/gb.h:1521: itm->y=y, itm->x=x;
      00023B AF                     565 	xor	a, a
      00023C 02                     566 	ld	(bc), a
      00023D 03                     567 	inc	bc
      00023E AF                     568 	xor	a, a
      00023F 02                     569 	ld	(bc), a
                                    570 ;main.c:58: shot=0;
      000240 21rF7r0B               571 	ld	hl, #_shot
      000243 36 00                  572 	ld	(hl), #0x00
                                    573 ;main.c:59: counterR=0;
      000245 21rF6r0B               574 	ld	hl, #_counterR
      000248 36 00                  575 	ld	(hl), #0x00
                                    576 ;main.c:60: arrowS=0;
      00024A 21r05r00               577 	ld	hl, #_arrowS
      00024D 36 00                  578 	ld	(hl), #0x00
                                    579 ;main.c:63: }
      00024F C9                     580 	ret
                                    581 ;main.c:65: void enemyHealhState(uint8_t state){
                                    582 ;	---------------------------------
                                    583 ; Function enemyHealhState
                                    584 ; ---------------------------------
      000250                        585 _enemyHealhState::
                                    586 ;main.c:66: if(state == 0){
      000250 F8 02                  587 	ldhl	sp,	#2
      000252 7E                     588 	ld	a, (hl)
      000253 B7                     589 	or	a, a
      000254 20 0A                  590 	jr	NZ, 00102$
                                    591 ;c:/gbdk/include/gb/gb.h:1447: shadow_OAM[nb].tile=tile;
      000256 21r1Ar00               592 	ld	hl, #(_shadow_OAM + 26)
      000259 36 40                  593 	ld	(hl), #0x40
      00025B 21r1Er00               594 	ld	hl, #(_shadow_OAM + 30)
      00025E 36 42                  595 	ld	(hl), #0x42
                                    596 ;main.c:68: set_sprite_tile(7,66);
      000260                        597 00102$:
                                    598 ;main.c:70: if(state == 1){
      000260 F8 02                  599 	ldhl	sp,	#2
      000262 7E                     600 	ld	a, (hl)
      000263 3D                     601 	dec	a
      000264 20 0A                  602 	jr	NZ, 00104$
                                    603 ;c:/gbdk/include/gb/gb.h:1447: shadow_OAM[nb].tile=tile;
      000266 21r1Ar00               604 	ld	hl, #(_shadow_OAM + 26)
      000269 36 44                  605 	ld	(hl), #0x44
      00026B 21r1Er00               606 	ld	hl, #(_shadow_OAM + 30)
      00026E 36 46                  607 	ld	(hl), #0x46
                                    608 ;main.c:72: set_sprite_tile(7,70);
      000270                        609 00104$:
                                    610 ;main.c:74: if(state == 2){
      000270 F8 02                  611 	ldhl	sp,	#2
      000272 7E                     612 	ld	a, (hl)
      000273 D6 02                  613 	sub	a, #0x02
      000275 20 0A                  614 	jr	NZ, 00106$
                                    615 ;c:/gbdk/include/gb/gb.h:1447: shadow_OAM[nb].tile=tile;
      000277 21r1Ar00               616 	ld	hl, #(_shadow_OAM + 26)
      00027A 36 48                  617 	ld	(hl), #0x48
      00027C 21r1Er00               618 	ld	hl, #(_shadow_OAM + 30)
      00027F 36 4A                  619 	ld	(hl), #0x4a
                                    620 ;main.c:76: set_sprite_tile(7,74);
      000281                        621 00106$:
                                    622 ;main.c:78: if(state == 3){
      000281 F8 02                  623 	ldhl	sp,	#2
      000283 7E                     624 	ld	a, (hl)
      000284 D6 03                  625 	sub	a, #0x03
      000286 20 0A                  626 	jr	NZ, 00108$
                                    627 ;c:/gbdk/include/gb/gb.h:1447: shadow_OAM[nb].tile=tile;
      000288 21r1Ar00               628 	ld	hl, #(_shadow_OAM + 26)
      00028B 36 4C                  629 	ld	(hl), #0x4c
      00028D 21r1Er00               630 	ld	hl, #(_shadow_OAM + 30)
      000290 36 4E                  631 	ld	(hl), #0x4e
                                    632 ;main.c:80: set_sprite_tile(7,78);
      000292                        633 00108$:
                                    634 ;main.c:82: move_sprite(6,ePosX,ePosY-12);
      000292 FAr07r00               635 	ld	a, (#_ePosY)
      000295 C6 F4                  636 	add	a, #0xf4
      000297 47                     637 	ld	b, a
      000298 21r06r00               638 	ld	hl, #_ePosX
      00029B 4E                     639 	ld	c, (hl)
                                    640 ;c:/gbdk/include/gb/gb.h:1520: OAM_item_t * itm = &shadow_OAM[nb];
      00029C 21r18r00               641 	ld	hl, #(_shadow_OAM + 24)
                                    642 ;c:/gbdk/include/gb/gb.h:1521: itm->y=y, itm->x=x;
      00029F 78                     643 	ld	a, b
      0002A0 22                     644 	ld	(hl+), a
      0002A1 71                     645 	ld	(hl), c
                                    646 ;main.c:83: move_sprite(7,ePosX+offset,ePosY-12);
      0002A2 FAr07r00               647 	ld	a, (#_ePosY)
      0002A5 C6 F4                  648 	add	a, #0xf4
      0002A7 47                     649 	ld	b, a
      0002A8 FAr06r00               650 	ld	a, (#_ePosX)
      0002AB 21rF5r0B               651 	ld	hl, #_offset
      0002AE 86                     652 	add	a, (hl)
      0002AF 4F                     653 	ld	c, a
                                    654 ;c:/gbdk/include/gb/gb.h:1520: OAM_item_t * itm = &shadow_OAM[nb];
      0002B0 21r1Cr00               655 	ld	hl, #(_shadow_OAM + 28)
                                    656 ;c:/gbdk/include/gb/gb.h:1521: itm->y=y, itm->x=x;
      0002B3 78                     657 	ld	a, b
      0002B4 22                     658 	ld	(hl+), a
      0002B5 71                     659 	ld	(hl), c
                                    660 ;main.c:84: if(state == 4){
      0002B6 F8 02                  661 	ldhl	sp,	#2
      0002B8 7E                     662 	ld	a, (hl)
      0002B9 D6 04                  663 	sub	a, #0x04
      0002BB 20 23                  664 	jr	NZ, 00110$
                                    665 ;c:/gbdk/include/gb/gb.h:1546: shadow_OAM[nb].y = 0;
      0002BD 21r10r00               666 	ld	hl, #(_shadow_OAM + 16)
      0002C0 36 00                  667 	ld	(hl), #0x00
      0002C2 21r14r00               668 	ld	hl, #(_shadow_OAM + 20)
      0002C5 36 00                  669 	ld	(hl), #0x00
      0002C7 21r18r00               670 	ld	hl, #(_shadow_OAM + 24)
      0002CA 36 00                  671 	ld	(hl), #0x00
      0002CC 21r1Cr00               672 	ld	hl, #(_shadow_OAM + 28)
      0002CF 36 00                  673 	ld	(hl), #0x00
                                    674 ;main.c:89: ePosX=0;
      0002D1 21r06r00               675 	ld	hl, #_ePosX
      0002D4 36 00                  676 	ld	(hl), #0x00
                                    677 ;main.c:90: ePosY=0;
      0002D6 21r07r00               678 	ld	hl, #_ePosY
      0002D9 36 00                  679 	ld	(hl), #0x00
                                    680 ;main.c:91: alive=0;
      0002DB 21r0Br00               681 	ld	hl, #_alive
      0002DE 36 00                  682 	ld	(hl), #0x00
      0002E0                        683 00110$:
                                    684 ;main.c:93: if(eHealth==4){
      0002E0 FAr0Ar00               685 	ld	a, (#_eHealth)
      0002E3 D6 04                  686 	sub	a, #0x04
      0002E5 C0                     687 	ret	NZ
                                    688 ;main.c:94: eHealth=0;
      0002E6 21r0Ar00               689 	ld	hl, #_eHealth
      0002E9 36 00                  690 	ld	(hl), #0x00
                                    691 ;main.c:96: }
      0002EB C9                     692 	ret
                                    693 ;main.c:98: void enemyAttack(UBYTE on){ //necesita correción, el enemigo no alcanza al jugador y se retira después de que pasa cierto limite el jugador
                                    694 ;	---------------------------------
                                    695 ; Function enemyAttack
                                    696 ; ---------------------------------
      0002EC                        697 _enemyAttack::
                                    698 ;main.c:99: if(on == 1){
      0002EC F8 02                  699 	ldhl	sp,	#2
      0002EE 7E                     700 	ld	a, (hl)
      0002EF 3D                     701 	dec	a
      0002F0 C0                     702 	ret	NZ
                                    703 ;main.c:100: if(ePosX >= 0 && from == 0){
      0002F1 FArF8r0B               704 	ld	a, (#_from)
      0002F4 B7                     705 	or	a, a
      0002F5 20 3B                  706 	jr	NZ, 00102$
                                    707 ;c:/gbdk/include/gb/gb.h:1503: return shadow_OAM[nb].prop;
      0002F7 FAr13r00               708 	ld	a, (#(_shadow_OAM + 19) + 0)
                                    709 ;main.c:101: set_sprite_prop(4,get_sprite_prop(4) & ~S_FLIPX);
      0002FA 4F                     710 	ld	c, a
      0002FB CB A9                  711 	res	5, c
                                    712 ;c:/gbdk/include/gb/gb.h:1493: shadow_OAM[nb].prop=prop;
      0002FD 21r13r00               713 	ld	hl, #(_shadow_OAM + 19)
      000300 71                     714 	ld	(hl), c
                                    715 ;c:/gbdk/include/gb/gb.h:1503: return shadow_OAM[nb].prop;
      000301 FAr17r00               716 	ld	a, (#(_shadow_OAM + 23) + 0)
                                    717 ;main.c:102: set_sprite_prop(5,get_sprite_prop(5) & ~S_FLIPX);
      000304 4F                     718 	ld	c, a
      000305 CB A9                  719 	res	5, c
                                    720 ;c:/gbdk/include/gb/gb.h:1493: shadow_OAM[nb].prop=prop;
      000307 21r17r00               721 	ld	hl, #(_shadow_OAM + 23)
      00030A 71                     722 	ld	(hl), c
                                    723 ;main.c:103: ePosX -= 4;
      00030B 21r06r00               724 	ld	hl, #_ePosX
      00030E 7E                     725 	ld	a, (hl)
      00030F C6 FC                  726 	add	a, #0xfc
      000311 77                     727 	ld	(hl), a
                                    728 ;main.c:104: move_sprite(4,ePosX,ePosY);
      000312 21r07r00               729 	ld	hl, #_ePosY
      000315 4E                     730 	ld	c, (hl)
      000316 21r06r00               731 	ld	hl, #_ePosX
      000319 46                     732 	ld	b, (hl)
                                    733 ;c:/gbdk/include/gb/gb.h:1520: OAM_item_t * itm = &shadow_OAM[nb];
      00031A 21r10r00               734 	ld	hl, #(_shadow_OAM + 16)
                                    735 ;c:/gbdk/include/gb/gb.h:1521: itm->y=y, itm->x=x;
      00031D 79                     736 	ld	a, c
      00031E 22                     737 	ld	(hl+), a
      00031F 70                     738 	ld	(hl), b
                                    739 ;main.c:105: move_sprite(5,ePosX+offset,ePosY);
      000320 21r07r00               740 	ld	hl, #_ePosY
      000323 4E                     741 	ld	c, (hl)
      000324 FAr06r00               742 	ld	a, (#_ePosX)
      000327 21rF5r0B               743 	ld	hl, #_offset
      00032A 86                     744 	add	a, (hl)
      00032B 47                     745 	ld	b, a
                                    746 ;c:/gbdk/include/gb/gb.h:1520: OAM_item_t * itm = &shadow_OAM[nb];
      00032C 21r14r00               747 	ld	hl, #(_shadow_OAM + 20)
                                    748 ;c:/gbdk/include/gb/gb.h:1521: itm->y=y, itm->x=x;
      00032F 79                     749 	ld	a, c
      000330 22                     750 	ld	(hl+), a
      000331 70                     751 	ld	(hl), b
                                    752 ;main.c:105: move_sprite(5,ePosX+offset,ePosY);
      000332                        753 00102$:
                                    754 ;main.c:107: if(from==1){
      000332 FArF8r0B               755 	ld	a, (#_from)
      000335 3D                     756 	dec	a
      000336 20 31                  757 	jr	NZ, 00105$
                                    758 ;c:/gbdk/include/gb/gb.h:1493: shadow_OAM[nb].prop=prop;
      000338 21r13r00               759 	ld	hl, #(_shadow_OAM + 19)
      00033B 36 20                  760 	ld	(hl), #0x20
      00033D 21r17r00               761 	ld	hl, #(_shadow_OAM + 23)
      000340 36 20                  762 	ld	(hl), #0x20
                                    763 ;main.c:110: ePosX += 4;
      000342 21r06r00               764 	ld	hl, #_ePosX
      000345 7E                     765 	ld	a, (hl)
      000346 C6 04                  766 	add	a, #0x04
      000348 77                     767 	ld	(hl), a
                                    768 ;main.c:111: move_sprite(4,ePosX+offset,ePosY);
      000349 21r07r00               769 	ld	hl, #_ePosY
      00034C 46                     770 	ld	b, (hl)
      00034D FAr06r00               771 	ld	a, (#_ePosX)
      000350 21rF5r0B               772 	ld	hl, #_offset
      000353 86                     773 	add	a, (hl)
      000354 4F                     774 	ld	c, a
                                    775 ;c:/gbdk/include/gb/gb.h:1520: OAM_item_t * itm = &shadow_OAM[nb];
      000355 21r10r00               776 	ld	hl, #(_shadow_OAM + 16)
                                    777 ;c:/gbdk/include/gb/gb.h:1521: itm->y=y, itm->x=x;
      000358 78                     778 	ld	a, b
      000359 22                     779 	ld	(hl+), a
      00035A 71                     780 	ld	(hl), c
                                    781 ;main.c:112: move_sprite(5,ePosX,ePosY);
      00035B 21r07r00               782 	ld	hl, #_ePosY
      00035E 46                     783 	ld	b, (hl)
      00035F 21r06r00               784 	ld	hl, #_ePosX
      000362 4E                     785 	ld	c, (hl)
                                    786 ;c:/gbdk/include/gb/gb.h:1520: OAM_item_t * itm = &shadow_OAM[nb];
      000363 21r14r00               787 	ld	hl, #(_shadow_OAM + 20)
                                    788 ;c:/gbdk/include/gb/gb.h:1521: itm->y=y, itm->x=x;
      000366 78                     789 	ld	a, b
      000367 22                     790 	ld	(hl+), a
      000368 71                     791 	ld	(hl), c
                                    792 ;main.c:112: move_sprite(5,ePosX,ePosY);
      000369                        793 00105$:
                                    794 ;main.c:116: if(ePosX <= 0){
      000369 FAr06r00               795 	ld	a, (#_ePosX)
      00036C B7                     796 	or	a, a
      00036D 20 05                  797 	jr	NZ, 00107$
                                    798 ;main.c:117: from = 1;
      00036F 21rF8r0B               799 	ld	hl, #_from
      000372 36 01                  800 	ld	(hl), #0x01
      000374                        801 00107$:
                                    802 ;main.c:119: if(ePosX >= 152){
      000374 FAr06r00               803 	ld	a, (#_ePosX)
      000377 D6 98                  804 	sub	a, #0x98
      000379 D8                     805 	ret	C
                                    806 ;main.c:120: from = 0;
      00037A 21rF8r0B               807 	ld	hl, #_from
      00037D 36 00                  808 	ld	(hl), #0x00
                                    809 ;main.c:123: }
      00037F C9                     810 	ret
                                    811 ;main.c:125: void performtDelay(uint8_t delay){
                                    812 ;	---------------------------------
                                    813 ; Function performtDelay
                                    814 ; ---------------------------------
      000380                        815 _performtDelay::
                                    816 ;main.c:126: for(ii=0; ii<delay;ii++)
      000380 21r09r00               817 	ld	hl, #_ii
      000383 36 00                  818 	ld	(hl), #0x00
      000385                        819 00103$:
      000385 FAr09r00               820 	ld	a, (#_ii)
      000388 F8 02                  821 	ldhl	sp,	#2
      00038A 96                     822 	sub	a, (hl)
      00038B D0                     823 	ret	NC
                                    824 ;main.c:128: wait_vbl_done();
      00038C CDr00r00               825 	call	_wait_vbl_done
                                    826 ;main.c:126: for(ii=0; ii<delay;ii++)
      00038F 21r09r00               827 	ld	hl, #_ii
      000392 34                     828 	inc	(hl)
                                    829 ;main.c:130: }
      000393 18 F0                  830 	jr	00103$
                                    831 ;main.c:132: void main(){
                                    832 ;	---------------------------------
                                    833 ; Function main
                                    834 ; ---------------------------------
      000395                        835 _main::
                                    836 ;main.c:133: pPosX = 8;
      000395 21r03r00               837 	ld	hl, #_pPosX
      000398 36 08                  838 	ld	(hl), #0x08
                                    839 ;main.c:134: pPosY = 120;
      00039A 21r04r00               840 	ld	hl, #_pPosY
      00039D 36 78                  841 	ld	(hl), #0x78
                                    842 ;main.c:136: ePosX = 152;
      00039F 21r06r00               843 	ld	hl, #_ePosX
      0003A2 36 98                  844 	ld	(hl), #0x98
                                    845 ;main.c:137: ePosY = 120;
      0003A4 21r07r00               846 	ld	hl, #_ePosY
      0003A7 36 78                  847 	ld	(hl), #0x78
                                    848 ;main.c:139: counterR=0;
      0003A9 21rF6r0B               849 	ld	hl, #_counterR
      0003AC 36 00                  850 	ld	(hl), #0x00
                                    851 ;main.c:141: arrowS=0;
      0003AE 21r05r00               852 	ld	hl, #_arrowS
      0003B1 36 00                  853 	ld	(hl), #0x00
                                    854 ;main.c:143: alive=1;
      0003B3 21r0Br00               855 	ld	hl, #_alive
      0003B6 36 01                  856 	ld	(hl), #0x01
                                    857 ;main.c:144: faceing=1;
      0003B8 21r0Cr00               858 	ld	hl, #_faceing
      0003BB 36 01                  859 	ld	(hl), #0x01
                                    860 ;main.c:145: set_bkg_data(0,75,town_001_t);
      0003BD 11r00r05               861 	ld	de, #_town_001_t
      0003C0 D5                     862 	push	de
      0003C1 21 00 4B               863 	ld	hl, #0x4b00
      0003C4 E5                     864 	push	hl
      0003C5 CDr00r00               865 	call	_set_bkg_data
      0003C8 E8 04                  866 	add	sp, #4
                                    867 ;main.c:146: set_bkg_submap(0,0,32,18,town_001_map,town_001_mapWidth);
      0003CA 3E 20                  868 	ld	a, #0x20
      0003CC F5                     869 	push	af
      0003CD 33                     870 	inc	sp
      0003CE 11rB0r09               871 	ld	de, #_town_001_map
      0003D1 D5                     872 	push	de
      0003D2 21 20 12               873 	ld	hl, #0x1220
      0003D5 E5                     874 	push	hl
      0003D6 AF                     875 	xor	a, a
      0003D7 0F                     876 	rrca
      0003D8 F5                     877 	push	af
      0003D9 CDr00r00               878 	call	_set_bkg_submap
      0003DC E8 07                  879 	add	sp, #7
                                    880 ;main.c:148: SPRITES_8x16;
      0003DE F0r00                  881 	ldh	a, (_LCDC_REG + 0)
      0003E0 F6 04                  882 	or	a, #0x04
      0003E2 E0r00                  883 	ldh	(_LCDC_REG + 0), a
                                    884 ;main.c:149: set_sprite_data(0,80,Main_sprites);
      0003E4 11r00r00               885 	ld	de, #_Main_sprites
      0003E7 D5                     886 	push	de
      0003E8 21 00 50               887 	ld	hl, #0x5000
      0003EB E5                     888 	push	hl
      0003EC CDr00r00               889 	call	_set_sprite_data
      0003EF E8 04                  890 	add	sp, #4
                                    891 ;c:/gbdk/include/gb/gb.h:1447: shadow_OAM[nb].tile=tile;
      0003F1 21r02r00               892 	ld	hl, #(_shadow_OAM + 2)
      0003F4 36 00                  893 	ld	(hl), #0x00
      0003F6 21r06r00               894 	ld	hl, #(_shadow_OAM + 6)
      0003F9 36 02                  895 	ld	(hl), #0x02
      0003FB 21r0Ar00               896 	ld	hl, #(_shadow_OAM + 10)
      0003FE 36 16                  897 	ld	(hl), #0x16
      000400 21r12r00               898 	ld	hl, #(_shadow_OAM + 18)
      000403 36 1C                  899 	ld	(hl), #0x1c
      000405 21r16r00               900 	ld	hl, #(_shadow_OAM + 22)
      000408 36 1E                  901 	ld	(hl), #0x1e
                                    902 ;c:/gbdk/include/gb/gb.h:1080: SCX_REG=x, SCY_REG=y;
      00040A AF                     903 	xor	a, a
      00040B E0r00                  904 	ldh	(_SCX_REG + 0), a
      00040D 3E 08                  905 	ld	a, #0x08
      00040F E0r00                  906 	ldh	(_SCY_REG + 0), a
                                    907 ;main.c:158: move_sprite(0,pPosX,pPosY);
      000411 21r04r00               908 	ld	hl, #_pPosY
      000414 46                     909 	ld	b, (hl)
      000415 21r03r00               910 	ld	hl, #_pPosX
      000418 4E                     911 	ld	c, (hl)
                                    912 ;c:/gbdk/include/gb/gb.h:1520: OAM_item_t * itm = &shadow_OAM[nb];
      000419 21r00r00               913 	ld	hl, #_shadow_OAM
                                    914 ;c:/gbdk/include/gb/gb.h:1521: itm->y=y, itm->x=x;
      00041C 78                     915 	ld	a, b
      00041D 22                     916 	ld	(hl+), a
      00041E 71                     917 	ld	(hl), c
                                    918 ;main.c:159: move_sprite(1,pPosX+offset,pPosY);
      00041F 21r04r00               919 	ld	hl, #_pPosY
      000422 46                     920 	ld	b, (hl)
      000423 FAr03r00               921 	ld	a, (#_pPosX)
      000426 21rF5r0B               922 	ld	hl, #_offset
      000429 86                     923 	add	a, (hl)
      00042A 4F                     924 	ld	c, a
                                    925 ;c:/gbdk/include/gb/gb.h:1520: OAM_item_t * itm = &shadow_OAM[nb];
      00042B 21r04r00               926 	ld	hl, #(_shadow_OAM + 4)
                                    927 ;c:/gbdk/include/gb/gb.h:1521: itm->y=y, itm->x=x;
      00042E 78                     928 	ld	a, b
      00042F 22                     929 	ld	(hl+), a
      000430 71                     930 	ld	(hl), c
                                    931 ;main.c:160: move_sprite(2,pPosX+offset,pPosY);
      000431 21r04r00               932 	ld	hl, #_pPosY
      000434 46                     933 	ld	b, (hl)
      000435 FAr03r00               934 	ld	a, (#_pPosX)
      000438 21rF5r0B               935 	ld	hl, #_offset
      00043B 86                     936 	add	a, (hl)
      00043C 4F                     937 	ld	c, a
                                    938 ;c:/gbdk/include/gb/gb.h:1520: OAM_item_t * itm = &shadow_OAM[nb];
      00043D 21r08r00               939 	ld	hl, #(_shadow_OAM + 8)
                                    940 ;c:/gbdk/include/gb/gb.h:1521: itm->y=y, itm->x=x;
      000440 78                     941 	ld	a, b
      000441 22                     942 	ld	(hl+), a
      000442 71                     943 	ld	(hl), c
                                    944 ;main.c:162: move_sprite(4,ePosX,ePosY);
      000443 21r07r00               945 	ld	hl, #_ePosY
      000446 46                     946 	ld	b, (hl)
      000447 21r06r00               947 	ld	hl, #_ePosX
      00044A 4E                     948 	ld	c, (hl)
                                    949 ;c:/gbdk/include/gb/gb.h:1520: OAM_item_t * itm = &shadow_OAM[nb];
      00044B 21r10r00               950 	ld	hl, #(_shadow_OAM + 16)
                                    951 ;c:/gbdk/include/gb/gb.h:1521: itm->y=y, itm->x=x;
      00044E 78                     952 	ld	a, b
      00044F 22                     953 	ld	(hl+), a
      000450 71                     954 	ld	(hl), c
                                    955 ;main.c:163: move_sprite(5,ePosX+offset,ePosY);
      000451 21r07r00               956 	ld	hl, #_ePosY
      000454 46                     957 	ld	b, (hl)
      000455 FAr06r00               958 	ld	a, (#_ePosX)
      000458 21rF5r0B               959 	ld	hl, #_offset
      00045B 86                     960 	add	a, (hl)
      00045C 4F                     961 	ld	c, a
                                    962 ;c:/gbdk/include/gb/gb.h:1520: OAM_item_t * itm = &shadow_OAM[nb];
      00045D 21r14r00               963 	ld	hl, #(_shadow_OAM + 20)
                                    964 ;c:/gbdk/include/gb/gb.h:1521: itm->y=y, itm->x=x;
      000460 78                     965 	ld	a, b
      000461 22                     966 	ld	(hl+), a
      000462 71                     967 	ld	(hl), c
                                    968 ;main.c:165: SHOW_SPRITES;
      000463 F0r00                  969 	ldh	a, (_LCDC_REG + 0)
      000465 F6 02                  970 	or	a, #0x02
      000467 E0r00                  971 	ldh	(_LCDC_REG + 0), a
                                    972 ;main.c:166: SHOW_BKG;
      000469 F0r00                  973 	ldh	a, (_LCDC_REG + 0)
      00046B F6 01                  974 	or	a, #0x01
      00046D E0r00                  975 	ldh	(_LCDC_REG + 0), a
                                    976 ;main.c:167: wait_vbl_done();
      00046F CDr00r00               977 	call	_wait_vbl_done
                                    978 ;main.c:169: while(1){
      000472                        979 00110$:
                                    980 ;main.c:170: joy= joypad();
      000472 CDr00r00               981 	call	_joypad
      000475 21r08r00               982 	ld	hl, #_joy
      000478 73                     983 	ld	(hl), e
                                    984 ;main.c:171: if(joy & J_RIGHT){
      000479 7E                     985 	ld	a, (hl)
      00047A 0F                     986 	rrca
      00047B 30 59                  987 	jr	NC, 00102$
                                    988 ;main.c:172: pPosX++;
      00047D 21r03r00               989 	ld	hl, #_pPosX
      000480 34                     990 	inc	(hl)
                                    991 ;c:/gbdk/include/gb/gb.h:1503: return shadow_OAM[nb].prop;
      000481 FAr03r00               992 	ld	a, (#(_shadow_OAM + 3) + 0)
                                    993 ;main.c:173: set_sprite_prop(0,get_sprite_prop(0) & ~S_FLIPX);
      000484 4F                     994 	ld	c, a
      000485 CB A9                  995 	res	5, c
                                    996 ;c:/gbdk/include/gb/gb.h:1493: shadow_OAM[nb].prop=prop;
      000487 21r03r00               997 	ld	hl, #(_shadow_OAM + 3)
      00048A 71                     998 	ld	(hl), c
                                    999 ;c:/gbdk/include/gb/gb.h:1503: return shadow_OAM[nb].prop;
      00048B FAr07r00              1000 	ld	a, (#(_shadow_OAM + 7) + 0)
                                   1001 ;main.c:174: set_sprite_prop(1,get_sprite_prop(1) & ~S_FLIPX);
      00048E 4F                    1002 	ld	c, a
      00048F CB A9                 1003 	res	5, c
                                   1004 ;c:/gbdk/include/gb/gb.h:1493: shadow_OAM[nb].prop=prop;
      000491 21r07r00              1005 	ld	hl, #(_shadow_OAM + 7)
      000494 71                    1006 	ld	(hl), c
                                   1007 ;c:/gbdk/include/gb/gb.h:1503: return shadow_OAM[nb].prop;
      000495 FAr0Br00              1008 	ld	a, (#(_shadow_OAM + 11) + 0)
                                   1009 ;main.c:175: set_sprite_prop(2,get_sprite_prop(2) & ~S_FLIPX);
      000498 4F                    1010 	ld	c, a
      000499 CB A9                 1011 	res	5, c
                                   1012 ;c:/gbdk/include/gb/gb.h:1493: shadow_OAM[nb].prop=prop;
      00049B 21r0Br00              1013 	ld	hl, #(_shadow_OAM + 11)
      00049E 71                    1014 	ld	(hl), c
                                   1015 ;main.c:176: move_sprite(0,pPosX,pPosY);
      00049F 21r04r00              1016 	ld	hl, #_pPosY
      0004A2 46                    1017 	ld	b, (hl)
      0004A3 21r03r00              1018 	ld	hl, #_pPosX
      0004A6 4E                    1019 	ld	c, (hl)
                                   1020 ;c:/gbdk/include/gb/gb.h:1520: OAM_item_t * itm = &shadow_OAM[nb];
      0004A7 21r00r00              1021 	ld	hl, #_shadow_OAM
                                   1022 ;c:/gbdk/include/gb/gb.h:1521: itm->y=y, itm->x=x;
      0004AA 78                    1023 	ld	a, b
      0004AB 22                    1024 	ld	(hl+), a
      0004AC 71                    1025 	ld	(hl), c
                                   1026 ;main.c:177: move_sprite(1,pPosX+offset,pPosY);
      0004AD 21r04r00              1027 	ld	hl, #_pPosY
      0004B0 46                    1028 	ld	b, (hl)
      0004B1 FAr03r00              1029 	ld	a, (#_pPosX)
      0004B4 21rF5r0B              1030 	ld	hl, #_offset
      0004B7 86                    1031 	add	a, (hl)
      0004B8 4F                    1032 	ld	c, a
                                   1033 ;c:/gbdk/include/gb/gb.h:1520: OAM_item_t * itm = &shadow_OAM[nb];
      0004B9 21r04r00              1034 	ld	hl, #(_shadow_OAM + 4)
                                   1035 ;c:/gbdk/include/gb/gb.h:1521: itm->y=y, itm->x=x;
      0004BC 78                    1036 	ld	a, b
      0004BD 22                    1037 	ld	(hl+), a
      0004BE 71                    1038 	ld	(hl), c
                                   1039 ;main.c:178: move_sprite(2,pPosX+offset,pPosY);
      0004BF 21r04r00              1040 	ld	hl, #_pPosY
      0004C2 46                    1041 	ld	b, (hl)
      0004C3 FAr03r00              1042 	ld	a, (#_pPosX)
      0004C6 21rF5r0B              1043 	ld	hl, #_offset
      0004C9 86                    1044 	add	a, (hl)
      0004CA 4F                    1045 	ld	c, a
                                   1046 ;c:/gbdk/include/gb/gb.h:1520: OAM_item_t * itm = &shadow_OAM[nb];
      0004CB 21r08r00              1047 	ld	hl, #(_shadow_OAM + 8)
                                   1048 ;c:/gbdk/include/gb/gb.h:1521: itm->y=y, itm->x=x;
      0004CE 78                    1049 	ld	a, b
      0004CF 22                    1050 	ld	(hl+), a
      0004D0 71                    1051 	ld	(hl), c
                                   1052 ;main.c:179: faceing=1;
      0004D1 21r0Cr00              1053 	ld	hl, #_faceing
      0004D4 36 01                 1054 	ld	(hl), #0x01
      0004D6                       1055 00102$:
                                   1056 ;main.c:182: if(joy & J_LEFT){
      0004D6 FAr08r00              1057 	ld	a, (#_joy)
      0004D9 CB 4F                 1058 	bit	1, a
      0004DB 28 46                 1059 	jr	Z, 00104$
                                   1060 ;main.c:183: pPosX--;
      0004DD 21r03r00              1061 	ld	hl, #_pPosX
      0004E0 35                    1062 	dec	(hl)
                                   1063 ;c:/gbdk/include/gb/gb.h:1493: shadow_OAM[nb].prop=prop;
      0004E1 21r03r00              1064 	ld	hl, #(_shadow_OAM + 3)
      0004E4 36 20                 1065 	ld	(hl), #0x20
      0004E6 21r07r00              1066 	ld	hl, #(_shadow_OAM + 7)
      0004E9 36 20                 1067 	ld	(hl), #0x20
      0004EB 21r0Br00              1068 	ld	hl, #(_shadow_OAM + 11)
      0004EE 36 20                 1069 	ld	(hl), #0x20
                                   1070 ;main.c:187: move_sprite(0,pPosX+offset,pPosY);
      0004F0 21r04r00              1071 	ld	hl, #_pPosY
      0004F3 46                    1072 	ld	b, (hl)
      0004F4 FAr03r00              1073 	ld	a, (#_pPosX)
      0004F7 21rF5r0B              1074 	ld	hl, #_offset
      0004FA 86                    1075 	add	a, (hl)
      0004FB 4F                    1076 	ld	c, a
                                   1077 ;c:/gbdk/include/gb/gb.h:1520: OAM_item_t * itm = &shadow_OAM[nb];
      0004FC 21r00r00              1078 	ld	hl, #_shadow_OAM
                                   1079 ;c:/gbdk/include/gb/gb.h:1521: itm->y=y, itm->x=x;
      0004FF 78                    1080 	ld	a, b
      000500 22                    1081 	ld	(hl+), a
      000501 71                    1082 	ld	(hl), c
                                   1083 ;main.c:188: move_sprite(1,pPosX,pPosY);
      000502 21r04r00              1084 	ld	hl, #_pPosY
      000505 46                    1085 	ld	b, (hl)
      000506 21r03r00              1086 	ld	hl, #_pPosX
      000509 4E                    1087 	ld	c, (hl)
                                   1088 ;c:/gbdk/include/gb/gb.h:1520: OAM_item_t * itm = &shadow_OAM[nb];
      00050A 21r04r00              1089 	ld	hl, #(_shadow_OAM + 4)
                                   1090 ;c:/gbdk/include/gb/gb.h:1521: itm->y=y, itm->x=x;
      00050D 78                    1091 	ld	a, b
      00050E 22                    1092 	ld	(hl+), a
      00050F 71                    1093 	ld	(hl), c
                                   1094 ;main.c:189: move_sprite(2,pPosX,pPosY);
      000510 21r04r00              1095 	ld	hl, #_pPosY
      000513 46                    1096 	ld	b, (hl)
      000514 21r03r00              1097 	ld	hl, #_pPosX
      000517 4E                    1098 	ld	c, (hl)
                                   1099 ;c:/gbdk/include/gb/gb.h:1520: OAM_item_t * itm = &shadow_OAM[nb];
      000518 21r08r00              1100 	ld	hl, #(_shadow_OAM + 8)
                                   1101 ;c:/gbdk/include/gb/gb.h:1521: itm->y=y, itm->x=x;
      00051B 78                    1102 	ld	a, b
      00051C 22                    1103 	ld	(hl+), a
      00051D 71                    1104 	ld	(hl), c
                                   1105 ;main.c:190: faceing=0;
      00051E 21r0Cr00              1106 	ld	hl, #_faceing
      000521 36 00                 1107 	ld	(hl), #0x00
      000523                       1108 00104$:
                                   1109 ;main.c:193: if(joy & J_B){
      000523 FAr08r00              1110 	ld	a, (#_joy)
      000526 CB 6F                 1111 	bit	5, a
      000528 28 1C                 1112 	jr	Z, 00106$
                                   1113 ;c:/gbdk/include/gb/gb.h:1447: shadow_OAM[nb].tile=tile;
      00052A 21r0Er00              1114 	ld	hl, #(_shadow_OAM + 14)
      00052D 36 1A                 1115 	ld	(hl), #0x1a
                                   1116 ;main.c:195: move_sprite(3,pPosX+offset,pPosY);
      00052F 21r04r00              1117 	ld	hl, #_pPosY
      000532 46                    1118 	ld	b, (hl)
      000533 FAr03r00              1119 	ld	a, (#_pPosX)
      000536 21rF5r0B              1120 	ld	hl, #_offset
      000539 86                    1121 	add	a, (hl)
      00053A 4F                    1122 	ld	c, a
                                   1123 ;c:/gbdk/include/gb/gb.h:1520: OAM_item_t * itm = &shadow_OAM[nb];
      00053B 21r0Cr00              1124 	ld	hl, #(_shadow_OAM + 12)
                                   1125 ;c:/gbdk/include/gb/gb.h:1521: itm->y=y, itm->x=x;
      00053E 78                    1126 	ld	a, b
      00053F 22                    1127 	ld	(hl+), a
      000540 71                    1128 	ld	(hl), c
                                   1129 ;main.c:196: shot=1;
      000541 21rF7r0B              1130 	ld	hl, #_shot
      000544 36 01                 1131 	ld	(hl), #0x01
      000546                       1132 00106$:
                                   1133 ;main.c:198: if(joy & J_A){
      000546 FAr08r00              1134 	ld	a, (#_joy)
      000549 CB 67                 1135 	bit	4, a
      00054B 28 29                 1136 	jr	Z, 00108$
                                   1137 ;main.c:199: ePosX=152;
      00054D 21r06r00              1138 	ld	hl, #_ePosX
      000550 36 98                 1139 	ld	(hl), #0x98
                                   1140 ;main.c:200: ePosY=120;
      000552 21r07r00              1141 	ld	hl, #_ePosY
      000555 36 78                 1142 	ld	(hl), #0x78
                                   1143 ;c:/gbdk/include/gb/gb.h:1520: OAM_item_t * itm = &shadow_OAM[nb];
      000557 21r10r00              1144 	ld	hl, #(_shadow_OAM + 16)
                                   1145 ;c:/gbdk/include/gb/gb.h:1521: itm->y=y, itm->x=x;
      00055A 3E 78                 1146 	ld	a, #0x78
      00055C 22                    1147 	ld	(hl+), a
      00055D 36 98                 1148 	ld	(hl), #0x98
                                   1149 ;main.c:202: move_sprite(5,ePosX+offset,ePosY);
      00055F 21r07r00              1150 	ld	hl, #_ePosY
      000562 46                    1151 	ld	b, (hl)
      000563 FAr06r00              1152 	ld	a, (#_ePosX)
      000566 21rF5r0B              1153 	ld	hl, #_offset
      000569 86                    1154 	add	a, (hl)
      00056A 4F                    1155 	ld	c, a
                                   1156 ;c:/gbdk/include/gb/gb.h:1520: OAM_item_t * itm = &shadow_OAM[nb];
      00056B 21r14r00              1157 	ld	hl, #(_shadow_OAM + 20)
                                   1158 ;c:/gbdk/include/gb/gb.h:1521: itm->y=y, itm->x=x;
      00056E 78                    1159 	ld	a, b
      00056F 22                    1160 	ld	(hl+), a
      000570 71                    1161 	ld	(hl), c
                                   1162 ;main.c:203: alive=1;
      000571 21r0Br00              1163 	ld	hl, #_alive
      000574 36 01                 1164 	ld	(hl), #0x01
      000576                       1165 00108$:
                                   1166 ;main.c:205: shootArrow();
      000576 CDr42r01              1167 	call	_shootArrow
                                   1168 ;main.c:206: enemyHealhState(eHealth);
      000579 FAr0Ar00              1169 	ld	a, (#_eHealth)
      00057C F5                    1170 	push	af
      00057D 33                    1171 	inc	sp
      00057E CDr50r02              1172 	call	_enemyHealhState
      000581 33                    1173 	inc	sp
                                   1174 ;main.c:207: performtDelay(2);
      000582 3E 02                 1175 	ld	a, #0x02
      000584 F5                    1176 	push	af
      000585 33                    1177 	inc	sp
      000586 CDr80r03              1178 	call	_performtDelay
      000589 33                    1179 	inc	sp
                                   1180 ;main.c:208: enemyAttack(alive);
      00058A FAr0Br00              1181 	ld	a, (#_alive)
      00058D F5                    1182 	push	af
      00058E 33                    1183 	inc	sp
      00058F CDrECr02              1184 	call	_enemyAttack
      000592 33                    1185 	inc	sp
                                   1186 ;main.c:210: }
      000593 C3r72r04              1187 	jp	00110$
                                   1188 	.area _CODE
                                   1189 	.area _INITIALIZER
      000000                       1190 __xinit__Main_sprites:
      000000 00                    1191 	.db #0x00	; 0
      000001 07                    1192 	.db #0x07	; 7
      000002 05                    1193 	.db #0x05	; 5
      000003 0F                    1194 	.db #0x0f	; 15
      000004 03                    1195 	.db #0x03	; 3
      000005 0E                    1196 	.db #0x0e	; 14
      000006 07                    1197 	.db #0x07	; 7
      000007 0C                    1198 	.db #0x0c	; 12
      000008 03                    1199 	.db #0x03	; 3
      000009 0E                    1200 	.db #0x0e	; 14
      00000A 01                    1201 	.db #0x01	; 1
      00000B 0F                    1202 	.db #0x0f	; 15
      00000C 03                    1203 	.db #0x03	; 3
      00000D 0F                    1204 	.db #0x0f	; 15
      00000E 03                    1205 	.db #0x03	; 3
      00000F 0C                    1206 	.db #0x0c	; 12
      000010 03                    1207 	.db #0x03	; 3
      000011 0D                    1208 	.db #0x0d	; 13
      000012 03                    1209 	.db #0x03	; 3
      000013 1F                    1210 	.db #0x1f	; 31
      000014 03                    1211 	.db #0x03	; 3
      000015 04                    1212 	.db #0x04	; 4
      000016 03                    1213 	.db #0x03	; 3
      000017 03                    1214 	.db #0x03	; 3
      000018 03                    1215 	.db #0x03	; 3
      000019 03                    1216 	.db #0x03	; 3
      00001A 02                    1217 	.db #0x02	; 2
      00001B 02                    1218 	.db #0x02	; 2
      00001C 02                    1219 	.db #0x02	; 2
      00001D 02                    1220 	.db #0x02	; 2
      00001E 03                    1221 	.db #0x03	; 3
      00001F 03                    1222 	.db #0x03	; 3
      000020 00                    1223 	.db #0x00	; 0
      000021 E0                    1224 	.db #0xe0	; 224
      000022 00                    1225 	.db #0x00	; 0
      000023 F0                    1226 	.db #0xf0	; 240
      000024 E0                    1227 	.db #0xe0	; 224
      000025 10                    1228 	.db #0x10	; 16
      000026 40                    1229 	.db #0x40	; 64
      000027 B0                    1230 	.db #0xb0	; 176
      000028 E0                    1231 	.db #0xe0	; 224
      000029 10                    1232 	.db #0x10	; 16
      00002A E0                    1233 	.db #0xe0	; 224
      00002B 30                    1234 	.db #0x30	; 48	'0'
      00002C B0                    1235 	.db #0xb0	; 176
      00002D F0                    1236 	.db #0xf0	; 240
      00002E B8                    1237 	.db #0xb8	; 184
      00002F E0                    1238 	.db #0xe0	; 224
      000030 B0                    1239 	.db #0xb0	; 176
      000031 E0                    1240 	.db #0xe0	; 224
      000032 B0                    1241 	.db #0xb0	; 176
      000033 F0                    1242 	.db #0xf0	; 240
      000034 F0                    1243 	.db #0xf0	; 240
      000035 00                    1244 	.db #0x00	; 0
      000036 F0                    1245 	.db #0xf0	; 240
      000037 F0                    1246 	.db #0xf0	; 240
      000038 30                    1247 	.db #0x30	; 48	'0'
      000039 30                    1248 	.db #0x30	; 48	'0'
      00003A 20                    1249 	.db #0x20	; 32
      00003B 20                    1250 	.db #0x20	; 32
      00003C 20                    1251 	.db #0x20	; 32
      00003D 20                    1252 	.db #0x20	; 32
      00003E 30                    1253 	.db #0x30	; 48	'0'
      00003F 30                    1254 	.db #0x30	; 48	'0'
      000040 00                    1255 	.db #0x00	; 0
      000041 07                    1256 	.db #0x07	; 7
      000042 02                    1257 	.db #0x02	; 2
      000043 0F                    1258 	.db #0x0f	; 15
      000044 01                    1259 	.db #0x01	; 1
      000045 0F                    1260 	.db #0x0f	; 15
      000046 03                    1261 	.db #0x03	; 3
      000047 0E                    1262 	.db #0x0e	; 14
      000048 00                    1263 	.db #0x00	; 0
      000049 0F                    1264 	.db #0x0f	; 15
      00004A 01                    1265 	.db #0x01	; 1
      00004B 0F                    1266 	.db #0x0f	; 15
      00004C 01                    1267 	.db #0x01	; 1
      00004D 0F                    1268 	.db #0x0f	; 15
      00004E 01                    1269 	.db #0x01	; 1
      00004F 0E                    1270 	.db #0x0e	; 14
      000050 01                    1271 	.db #0x01	; 1
      000051 0E                    1272 	.db #0x0e	; 14
      000052 01                    1273 	.db #0x01	; 1
      000053 1F                    1274 	.db #0x1f	; 31
      000054 01                    1275 	.db #0x01	; 1
      000055 06                    1276 	.db #0x06	; 6
      000056 03                    1277 	.db #0x03	; 3
      000057 03                    1278 	.db #0x03	; 3
      000058 07                    1279 	.db #0x07	; 7
      000059 07                    1280 	.db #0x07	; 7
      00005A 06                    1281 	.db #0x06	; 6
      00005B 06                    1282 	.db #0x06	; 6
      00005C 04                    1283 	.db #0x04	; 4
      00005D 04                    1284 	.db #0x04	; 4
      00005E 06                    1285 	.db #0x06	; 6
      00005F 06                    1286 	.db #0x06	; 6
      000060 00                    1287 	.db #0x00	; 0
      000061 E0                    1288 	.db #0xe0	; 224
      000062 80                    1289 	.db #0x80	; 128
      000063 E0                    1290 	.db #0xe0	; 224
      000064 E0                    1291 	.db #0xe0	; 224
      000065 00                    1292 	.db #0x00	; 0
      000066 A0                    1293 	.db #0xa0	; 160
      000067 40                    1294 	.db #0x40	; 64
      000068 E0                    1295 	.db #0xe0	; 224
      000069 00                    1296 	.db #0x00	; 0
      00006A C0                    1297 	.db #0xc0	; 192
      00006B 80                    1298 	.db #0x80	; 128
      00006C C0                    1299 	.db #0xc0	; 192
      00006D E0                    1300 	.db #0xe0	; 224
      00006E D0                    1301 	.db #0xd0	; 208
      00006F 60                    1302 	.db #0x60	; 96
      000070 C0                    1303 	.db #0xc0	; 192
      000071 E0                    1304 	.db #0xe0	; 224
      000072 C0                    1305 	.db #0xc0	; 192
      000073 E0                    1306 	.db #0xe0	; 224
      000074 E0                    1307 	.db #0xe0	; 224
      000075 00                    1308 	.db #0x00	; 0
      000076 E0                    1309 	.db #0xe0	; 224
      000077 E0                    1310 	.db #0xe0	; 224
      000078 60                    1311 	.db #0x60	; 96
      000079 60                    1312 	.db #0x60	; 96
      00007A 20                    1313 	.db #0x20	; 32
      00007B 20                    1314 	.db #0x20	; 32
      00007C 30                    1315 	.db #0x30	; 48	'0'
      00007D 30                    1316 	.db #0x30	; 48	'0'
      00007E 00                    1317 	.db #0x00	; 0
      00007F 00                    1318 	.db #0x00	; 0
      000080 00                    1319 	.db #0x00	; 0
      000081 07                    1320 	.db #0x07	; 7
      000082 02                    1321 	.db #0x02	; 2
      000083 0F                    1322 	.db #0x0f	; 15
      000084 01                    1323 	.db #0x01	; 1
      000085 0F                    1324 	.db #0x0f	; 15
      000086 03                    1325 	.db #0x03	; 3
      000087 0E                    1326 	.db #0x0e	; 14
      000088 00                    1327 	.db #0x00	; 0
      000089 0F                    1328 	.db #0x0f	; 15
      00008A 01                    1329 	.db #0x01	; 1
      00008B 0F                    1330 	.db #0x0f	; 15
      00008C 01                    1331 	.db #0x01	; 1
      00008D 0F                    1332 	.db #0x0f	; 15
      00008E 01                    1333 	.db #0x01	; 1
      00008F 0E                    1334 	.db #0x0e	; 14
      000090 01                    1335 	.db #0x01	; 1
      000091 0E                    1336 	.db #0x0e	; 14
      000092 01                    1337 	.db #0x01	; 1
      000093 1F                    1338 	.db #0x1f	; 31
      000094 01                    1339 	.db #0x01	; 1
      000095 06                    1340 	.db #0x06	; 6
      000096 03                    1341 	.db #0x03	; 3
      000097 03                    1342 	.db #0x03	; 3
      000098 03                    1343 	.db #0x03	; 3
      000099 03                    1344 	.db #0x03	; 3
      00009A 03                    1345 	.db #0x03	; 3
      00009B 03                    1346 	.db #0x03	; 3
      00009C 03                    1347 	.db #0x03	; 3
      00009D 03                    1348 	.db #0x03	; 3
      00009E 02                    1349 	.db #0x02	; 2
      00009F 02                    1350 	.db #0x02	; 2
      0000A0 00                    1351 	.db #0x00	; 0
      0000A1 E0                    1352 	.db #0xe0	; 224
      0000A2 80                    1353 	.db #0x80	; 128
      0000A3 E0                    1354 	.db #0xe0	; 224
      0000A4 E0                    1355 	.db #0xe0	; 224
      0000A5 00                    1356 	.db #0x00	; 0
      0000A6 A0                    1357 	.db #0xa0	; 160
      0000A7 40                    1358 	.db #0x40	; 64
      0000A8 E0                    1359 	.db #0xe0	; 224
      0000A9 00                    1360 	.db #0x00	; 0
      0000AA C0                    1361 	.db #0xc0	; 192
      0000AB 80                    1362 	.db #0x80	; 128
      0000AC C0                    1363 	.db #0xc0	; 192
      0000AD E0                    1364 	.db #0xe0	; 224
      0000AE D0                    1365 	.db #0xd0	; 208
      0000AF 60                    1366 	.db #0x60	; 96
      0000B0 C0                    1367 	.db #0xc0	; 192
      0000B1 E0                    1368 	.db #0xe0	; 224
      0000B2 C0                    1369 	.db #0xc0	; 192
      0000B3 E0                    1370 	.db #0xe0	; 224
      0000B4 E0                    1371 	.db #0xe0	; 224
      0000B5 00                    1372 	.db #0x00	; 0
      0000B6 E0                    1373 	.db #0xe0	; 224
      0000B7 E0                    1374 	.db #0xe0	; 224
      0000B8 A0                    1375 	.db #0xa0	; 160
      0000B9 A0                    1376 	.db #0xa0	; 160
      0000BA 20                    1377 	.db #0x20	; 32
      0000BB 20                    1378 	.db #0x20	; 32
      0000BC 20                    1379 	.db #0x20	; 32
      0000BD 20                    1380 	.db #0x20	; 32
      0000BE 30                    1381 	.db #0x30	; 48	'0'
      0000BF 30                    1382 	.db #0x30	; 48	'0'
      0000C0 00                    1383 	.db #0x00	; 0
      0000C1 00                    1384 	.db #0x00	; 0
      0000C2 00                    1385 	.db #0x00	; 0
      0000C3 07                    1386 	.db #0x07	; 7
      0000C4 02                    1387 	.db #0x02	; 2
      0000C5 0F                    1388 	.db #0x0f	; 15
      0000C6 01                    1389 	.db #0x01	; 1
      0000C7 0F                    1390 	.db #0x0f	; 15
      0000C8 03                    1391 	.db #0x03	; 3
      0000C9 0E                    1392 	.db #0x0e	; 14
      0000CA 00                    1393 	.db #0x00	; 0
      0000CB 0F                    1394 	.db #0x0f	; 15
      0000CC 01                    1395 	.db #0x01	; 1
      0000CD 0F                    1396 	.db #0x0f	; 15
      0000CE 01                    1397 	.db #0x01	; 1
      0000CF 0F                    1398 	.db #0x0f	; 15
      0000D0 01                    1399 	.db #0x01	; 1
      0000D1 0E                    1400 	.db #0x0e	; 14
      0000D2 01                    1401 	.db #0x01	; 1
      0000D3 0E                    1402 	.db #0x0e	; 14
      0000D4 01                    1403 	.db #0x01	; 1
      0000D5 1F                    1404 	.db #0x1f	; 31
      0000D6 01                    1405 	.db #0x01	; 1
      0000D7 06                    1406 	.db #0x06	; 6
      0000D8 03                    1407 	.db #0x03	; 3
      0000D9 03                    1408 	.db #0x03	; 3
      0000DA 03                    1409 	.db #0x03	; 3
      0000DB 03                    1410 	.db #0x03	; 3
      0000DC 06                    1411 	.db #0x06	; 6
      0000DD 06                    1412 	.db #0x06	; 6
      0000DE 04                    1413 	.db #0x04	; 4
      0000DF 04                    1414 	.db #0x04	; 4
      0000E0 00                    1415 	.db #0x00	; 0
      0000E1 00                    1416 	.db #0x00	; 0
      0000E2 00                    1417 	.db #0x00	; 0
      0000E3 E0                    1418 	.db #0xe0	; 224
      0000E4 80                    1419 	.db #0x80	; 128
      0000E5 E0                    1420 	.db #0xe0	; 224
      0000E6 E0                    1421 	.db #0xe0	; 224
      0000E7 00                    1422 	.db #0x00	; 0
      0000E8 A0                    1423 	.db #0xa0	; 160
      0000E9 40                    1424 	.db #0x40	; 64
      0000EA E0                    1425 	.db #0xe0	; 224
      0000EB 00                    1426 	.db #0x00	; 0
      0000EC C0                    1427 	.db #0xc0	; 192
      0000ED 80                    1428 	.db #0x80	; 128
      0000EE C0                    1429 	.db #0xc0	; 192
      0000EF E0                    1430 	.db #0xe0	; 224
      0000F0 D0                    1431 	.db #0xd0	; 208
      0000F1 60                    1432 	.db #0x60	; 96
      0000F2 C0                    1433 	.db #0xc0	; 192
      0000F3 E0                    1434 	.db #0xe0	; 224
      0000F4 C0                    1435 	.db #0xc0	; 192
      0000F5 E0                    1436 	.db #0xe0	; 224
      0000F6 E0                    1437 	.db #0xe0	; 224
      0000F7 00                    1438 	.db #0x00	; 0
      0000F8 E0                    1439 	.db #0xe0	; 224
      0000F9 E0                    1440 	.db #0xe0	; 224
      0000FA 60                    1441 	.db #0x60	; 96
      0000FB 60                    1442 	.db #0x60	; 96
      0000FC 40                    1443 	.db #0x40	; 64
      0000FD 40                    1444 	.db #0x40	; 64
      0000FE 60                    1445 	.db #0x60	; 96
      0000FF 60                    1446 	.db #0x60	; 96
      000100 00                    1447 	.db #0x00	; 0
      000101 00                    1448 	.db #0x00	; 0
      000102 00                    1449 	.db #0x00	; 0
      000103 00                    1450 	.db #0x00	; 0
      000104 01                    1451 	.db #0x01	; 1
      000105 03                    1452 	.db #0x03	; 3
      000106 03                    1453 	.db #0x03	; 3
      000107 06                    1454 	.db #0x06	; 6
      000108 05                    1455 	.db #0x05	; 5
      000109 0E                    1456 	.db #0x0e	; 14
      00010A 03                    1457 	.db #0x03	; 3
      00010B 0E                    1458 	.db #0x0e	; 14
      00010C 05                    1459 	.db #0x05	; 5
      00010D 0F                    1460 	.db #0x0f	; 15
      00010E 03                    1461 	.db #0x03	; 3
      00010F 0F                    1462 	.db #0x0f	; 15
      000110 03                    1463 	.db #0x03	; 3
      000111 0C                    1464 	.db #0x0c	; 12
      000112 03                    1465 	.db #0x03	; 3
      000113 0D                    1466 	.db #0x0d	; 13
      000114 03                    1467 	.db #0x03	; 3
      000115 0F                    1468 	.db #0x0f	; 15
      000116 03                    1469 	.db #0x03	; 3
      000117 0C                    1470 	.db #0x0c	; 12
      000118 03                    1471 	.db #0x03	; 3
      000119 0F                    1472 	.db #0x0f	; 15
      00011A 03                    1473 	.db #0x03	; 3
      00011B 1F                    1474 	.db #0x1f	; 31
      00011C 06                    1475 	.db #0x06	; 6
      00011D 0E                    1476 	.db #0x0e	; 14
      00011E 04                    1477 	.db #0x04	; 4
      00011F 04                    1478 	.db #0x04	; 4
      000120 00                    1479 	.db #0x00	; 0
      000121 00                    1480 	.db #0x00	; 0
      000122 00                    1481 	.db #0x00	; 0
      000123 00                    1482 	.db #0x00	; 0
      000124 00                    1483 	.db #0x00	; 0
      000125 E0                    1484 	.db #0xe0	; 224
      000126 E0                    1485 	.db #0xe0	; 224
      000127 10                    1486 	.db #0x10	; 16
      000128 40                    1487 	.db #0x40	; 64
      000129 B0                    1488 	.db #0xb0	; 176
      00012A E0                    1489 	.db #0xe0	; 224
      00012B 10                    1490 	.db #0x10	; 16
      00012C E0                    1491 	.db #0xe0	; 224
      00012D 30                    1492 	.db #0x30	; 48	'0'
      00012E A0                    1493 	.db #0xa0	; 160
      00012F F0                    1494 	.db #0xf0	; 240
      000130 B8                    1495 	.db #0xb8	; 184
      000131 E0                    1496 	.db #0xe0	; 224
      000132 B0                    1497 	.db #0xb0	; 176
      000133 E0                    1498 	.db #0xe0	; 224
      000134 B0                    1499 	.db #0xb0	; 176
      000135 F0                    1500 	.db #0xf0	; 240
      000136 F0                    1501 	.db #0xf0	; 240
      000137 00                    1502 	.db #0x00	; 0
      000138 F0                    1503 	.db #0xf0	; 240
      000139 F0                    1504 	.db #0xf0	; 240
      00013A 30                    1505 	.db #0x30	; 48	'0'
      00013B 30                    1506 	.db #0x30	; 48	'0'
      00013C 60                    1507 	.db #0x60	; 96
      00013D 60                    1508 	.db #0x60	; 96
      00013E 40                    1509 	.db #0x40	; 64
      00013F 40                    1510 	.db #0x40	; 64
      000140 00                    1511 	.db #0x00	; 0
      000141 00                    1512 	.db #0x00	; 0
      000142 00                    1513 	.db #0x00	; 0
      000143 00                    1514 	.db #0x00	; 0
      000144 00                    1515 	.db #0x00	; 0
      000145 00                    1516 	.db #0x00	; 0
      000146 00                    1517 	.db #0x00	; 0
      000147 00                    1518 	.db #0x00	; 0
      000148 00                    1519 	.db #0x00	; 0
      000149 00                    1520 	.db #0x00	; 0
      00014A 00                    1521 	.db #0x00	; 0
      00014B 00                    1522 	.db #0x00	; 0
      00014C 00                    1523 	.db #0x00	; 0
      00014D 00                    1524 	.db #0x00	; 0
      00014E 00                    1525 	.db #0x00	; 0
      00014F 00                    1526 	.db #0x00	; 0
      000150 00                    1527 	.db #0x00	; 0
      000151 00                    1528 	.db #0x00	; 0
      000152 00                    1529 	.db #0x00	; 0
      000153 00                    1530 	.db #0x00	; 0
      000154 00                    1531 	.db #0x00	; 0
      000155 00                    1532 	.db #0x00	; 0
      000156 00                    1533 	.db #0x00	; 0
      000157 00                    1534 	.db #0x00	; 0
      000158 00                    1535 	.db #0x00	; 0
      000159 00                    1536 	.db #0x00	; 0
      00015A 00                    1537 	.db #0x00	; 0
      00015B 00                    1538 	.db #0x00	; 0
      00015C 00                    1539 	.db #0x00	; 0
      00015D 00                    1540 	.db #0x00	; 0
      00015E 00                    1541 	.db #0x00	; 0
      00015F 00                    1542 	.db #0x00	; 0
      000160 18                    1543 	.db #0x18	; 24
      000161 18                    1544 	.db #0x18	; 24
      000162 0A                    1545 	.db #0x0a	; 10
      000163 0A                    1546 	.db #0x0a	; 10
      000164 04                    1547 	.db #0x04	; 4
      000165 00                    1548 	.db #0x00	; 0
      000166 02                    1549 	.db #0x02	; 2
      000167 02                    1550 	.db #0x02	; 2
      000168 01                    1551 	.db #0x01	; 1
      000169 03                    1552 	.db #0x03	; 3
      00016A 01                    1553 	.db #0x01	; 1
      00016B 03                    1554 	.db #0x03	; 3
      00016C 04                    1555 	.db #0x04	; 4
      00016D 04                    1556 	.db #0x04	; 4
      00016E 04                    1557 	.db #0x04	; 4
      00016F 04                    1558 	.db #0x04	; 4
      000170 04                    1559 	.db #0x04	; 4
      000171 04                    1560 	.db #0x04	; 4
      000172 01                    1561 	.db #0x01	; 1
      000173 03                    1562 	.db #0x03	; 3
      000174 01                    1563 	.db #0x01	; 1
      000175 03                    1564 	.db #0x03	; 3
      000176 02                    1565 	.db #0x02	; 2
      000177 02                    1566 	.db #0x02	; 2
      000178 04                    1567 	.db #0x04	; 4
      000179 00                    1568 	.db #0x00	; 0
      00017A 0A                    1569 	.db #0x0a	; 10
      00017B 0A                    1570 	.db #0x0a	; 10
      00017C 18                    1571 	.db #0x18	; 24
      00017D 18                    1572 	.db #0x18	; 24
      00017E 00                    1573 	.db #0x00	; 0
      00017F 00                    1574 	.db #0x00	; 0
      000180 00                    1575 	.db #0x00	; 0
      000181 00                    1576 	.db #0x00	; 0
      000182 00                    1577 	.db #0x00	; 0
      000183 00                    1578 	.db #0x00	; 0
      000184 00                    1579 	.db #0x00	; 0
      000185 00                    1580 	.db #0x00	; 0
      000186 00                    1581 	.db #0x00	; 0
      000187 00                    1582 	.db #0x00	; 0
      000188 00                    1583 	.db #0x00	; 0
      000189 00                    1584 	.db #0x00	; 0
      00018A 00                    1585 	.db #0x00	; 0
      00018B 00                    1586 	.db #0x00	; 0
      00018C 00                    1587 	.db #0x00	; 0
      00018D 00                    1588 	.db #0x00	; 0
      00018E 00                    1589 	.db #0x00	; 0
      00018F 00                    1590 	.db #0x00	; 0
      000190 00                    1591 	.db #0x00	; 0
      000191 00                    1592 	.db #0x00	; 0
      000192 00                    1593 	.db #0x00	; 0
      000193 00                    1594 	.db #0x00	; 0
      000194 00                    1595 	.db #0x00	; 0
      000195 00                    1596 	.db #0x00	; 0
      000196 00                    1597 	.db #0x00	; 0
      000197 00                    1598 	.db #0x00	; 0
      000198 00                    1599 	.db #0x00	; 0
      000199 00                    1600 	.db #0x00	; 0
      00019A 00                    1601 	.db #0x00	; 0
      00019B 00                    1602 	.db #0x00	; 0
      00019C 00                    1603 	.db #0x00	; 0
      00019D 00                    1604 	.db #0x00	; 0
      00019E 00                    1605 	.db #0x00	; 0
      00019F 00                    1606 	.db #0x00	; 0
      0001A0 00                    1607 	.db #0x00	; 0
      0001A1 00                    1608 	.db #0x00	; 0
      0001A2 00                    1609 	.db #0x00	; 0
      0001A3 00                    1610 	.db #0x00	; 0
      0001A4 00                    1611 	.db #0x00	; 0
      0001A5 00                    1612 	.db #0x00	; 0
      0001A6 00                    1613 	.db #0x00	; 0
      0001A7 00                    1614 	.db #0x00	; 0
      0001A8 00                    1615 	.db #0x00	; 0
      0001A9 00                    1616 	.db #0x00	; 0
      0001AA 00                    1617 	.db #0x00	; 0
      0001AB 00                    1618 	.db #0x00	; 0
      0001AC 00                    1619 	.db #0x00	; 0
      0001AD 00                    1620 	.db #0x00	; 0
      0001AE 02                    1621 	.db #0x02	; 2
      0001AF 00                    1622 	.db #0x00	; 0
      0001B0 FF                    1623 	.db #0xff	; 255
      0001B1 00                    1624 	.db #0x00	; 0
      0001B2 02                    1625 	.db #0x02	; 2
      0001B3 00                    1626 	.db #0x00	; 0
      0001B4 00                    1627 	.db #0x00	; 0
      0001B5 00                    1628 	.db #0x00	; 0
      0001B6 00                    1629 	.db #0x00	; 0
      0001B7 00                    1630 	.db #0x00	; 0
      0001B8 00                    1631 	.db #0x00	; 0
      0001B9 00                    1632 	.db #0x00	; 0
      0001BA 00                    1633 	.db #0x00	; 0
      0001BB 00                    1634 	.db #0x00	; 0
      0001BC 00                    1635 	.db #0x00	; 0
      0001BD 00                    1636 	.db #0x00	; 0
      0001BE 00                    1637 	.db #0x00	; 0
      0001BF 00                    1638 	.db #0x00	; 0
      0001C0 00                    1639 	.db #0x00	; 0
      0001C1 00                    1640 	.db #0x00	; 0
      0001C2 00                    1641 	.db #0x00	; 0
      0001C3 00                    1642 	.db #0x00	; 0
      0001C4 00                    1643 	.db #0x00	; 0
      0001C5 00                    1644 	.db #0x00	; 0
      0001C6 00                    1645 	.db #0x00	; 0
      0001C7 00                    1646 	.db #0x00	; 0
      0001C8 00                    1647 	.db #0x00	; 0
      0001C9 00                    1648 	.db #0x00	; 0
      0001CA 00                    1649 	.db #0x00	; 0
      0001CB 00                    1650 	.db #0x00	; 0
      0001CC 08                    1651 	.db #0x08	; 8
      0001CD 00                    1652 	.db #0x00	; 0
      0001CE 04                    1653 	.db #0x04	; 4
      0001CF 00                    1654 	.db #0x00	; 0
      0001D0 06                    1655 	.db #0x06	; 6
      0001D1 04                    1656 	.db #0x04	; 4
      0001D2 0E                    1657 	.db #0x0e	; 14
      0001D3 0E                    1658 	.db #0x0e	; 14
      0001D4 1F                    1659 	.db #0x1f	; 31
      0001D5 1B                    1660 	.db #0x1b	; 27
      0001D6 03                    1661 	.db #0x03	; 3
      0001D7 1E                    1662 	.db #0x1e	; 30
      0001D8 0F                    1663 	.db #0x0f	; 15
      0001D9 03                    1664 	.db #0x03	; 3
      0001DA 03                    1665 	.db #0x03	; 3
      0001DB 03                    1666 	.db #0x03	; 3
      0001DC 02                    1667 	.db #0x02	; 2
      0001DD 00                    1668 	.db #0x00	; 0
      0001DE 02                    1669 	.db #0x02	; 2
      0001DF 06                    1670 	.db #0x06	; 6
      0001E0 00                    1671 	.db #0x00	; 0
      0001E1 00                    1672 	.db #0x00	; 0
      0001E2 00                    1673 	.db #0x00	; 0
      0001E3 00                    1674 	.db #0x00	; 0
      0001E4 00                    1675 	.db #0x00	; 0
      0001E5 00                    1676 	.db #0x00	; 0
      0001E6 00                    1677 	.db #0x00	; 0
      0001E7 00                    1678 	.db #0x00	; 0
      0001E8 00                    1679 	.db #0x00	; 0
      0001E9 00                    1680 	.db #0x00	; 0
      0001EA 00                    1681 	.db #0x00	; 0
      0001EB 00                    1682 	.db #0x00	; 0
      0001EC 00                    1683 	.db #0x00	; 0
      0001ED 00                    1684 	.db #0x00	; 0
      0001EE 00                    1685 	.db #0x00	; 0
      0001EF 00                    1686 	.db #0x00	; 0
      0001F0 00                    1687 	.db #0x00	; 0
      0001F1 00                    1688 	.db #0x00	; 0
      0001F2 00                    1689 	.db #0x00	; 0
      0001F3 80                    1690 	.db #0x80	; 128
      0001F4 80                    1691 	.db #0x80	; 128
      0001F5 50                    1692 	.db #0x50	; 80	'P'
      0001F6 D2                    1693 	.db #0xd2	; 210
      0001F7 AA                    1694 	.db #0xaa	; 170
      0001F8 F9                    1695 	.db #0xf9	; 249
      0001F9 DD                    1696 	.db #0xdd	; 221
      0001FA 7C                    1697 	.db #0x7c	; 124
      0001FB 7C                    1698 	.db #0x7c	; 124
      0001FC 1C                    1699 	.db #0x1c	; 28
      0001FD 0C                    1700 	.db #0x0c	; 12
      0001FE 18                    1701 	.db #0x18	; 24
      0001FF 38                    1702 	.db #0x38	; 56	'8'
      000200 00                    1703 	.db #0x00	; 0
      000201 00                    1704 	.db #0x00	; 0
      000202 00                    1705 	.db #0x00	; 0
      000203 00                    1706 	.db #0x00	; 0
      000204 00                    1707 	.db #0x00	; 0
      000205 00                    1708 	.db #0x00	; 0
      000206 00                    1709 	.db #0x00	; 0
      000207 00                    1710 	.db #0x00	; 0
      000208 00                    1711 	.db #0x00	; 0
      000209 00                    1712 	.db #0x00	; 0
      00020A 08                    1713 	.db #0x08	; 8
      00020B 00                    1714 	.db #0x00	; 0
      00020C 04                    1715 	.db #0x04	; 4
      00020D 00                    1716 	.db #0x00	; 0
      00020E 06                    1717 	.db #0x06	; 6
      00020F 04                    1718 	.db #0x04	; 4
      000210 0E                    1719 	.db #0x0e	; 14
      000211 0E                    1720 	.db #0x0e	; 14
      000212 1F                    1721 	.db #0x1f	; 31
      000213 1B                    1722 	.db #0x1b	; 27
      000214 03                    1723 	.db #0x03	; 3
      000215 1E                    1724 	.db #0x1e	; 30
      000216 0F                    1725 	.db #0x0f	; 15
      000217 03                    1726 	.db #0x03	; 3
      000218 03                    1727 	.db #0x03	; 3
      000219 03                    1728 	.db #0x03	; 3
      00021A 06                    1729 	.db #0x06	; 6
      00021B 00                    1730 	.db #0x00	; 0
      00021C 04                    1731 	.db #0x04	; 4
      00021D 0C                    1732 	.db #0x0c	; 12
      00021E 00                    1733 	.db #0x00	; 0
      00021F 00                    1734 	.db #0x00	; 0
      000220 00                    1735 	.db #0x00	; 0
      000221 00                    1736 	.db #0x00	; 0
      000222 00                    1737 	.db #0x00	; 0
      000223 00                    1738 	.db #0x00	; 0
      000224 00                    1739 	.db #0x00	; 0
      000225 00                    1740 	.db #0x00	; 0
      000226 00                    1741 	.db #0x00	; 0
      000227 00                    1742 	.db #0x00	; 0
      000228 00                    1743 	.db #0x00	; 0
      000229 00                    1744 	.db #0x00	; 0
      00022A 00                    1745 	.db #0x00	; 0
      00022B 00                    1746 	.db #0x00	; 0
      00022C 00                    1747 	.db #0x00	; 0
      00022D 00                    1748 	.db #0x00	; 0
      00022E 00                    1749 	.db #0x00	; 0
      00022F 00                    1750 	.db #0x00	; 0
      000230 00                    1751 	.db #0x00	; 0
      000231 80                    1752 	.db #0x80	; 128
      000232 80                    1753 	.db #0x80	; 128
      000233 50                    1754 	.db #0x50	; 80	'P'
      000234 D2                    1755 	.db #0xd2	; 210
      000235 EA                    1756 	.db #0xea	; 234
      000236 F9                    1757 	.db #0xf9	; 249
      000237 DD                    1758 	.db #0xdd	; 221
      000238 7C                    1759 	.db #0x7c	; 124
      000239 7C                    1760 	.db #0x7c	; 124
      00023A 0C                    1761 	.db #0x0c	; 12
      00023B 0C                    1762 	.db #0x0c	; 12
      00023C 02                    1763 	.db #0x02	; 2
      00023D 00                    1764 	.db #0x00	; 0
      00023E 02                    1765 	.db #0x02	; 2
      00023F 06                    1766 	.db #0x06	; 6
      000240 00                    1767 	.db #0x00	; 0
      000241 00                    1768 	.db #0x00	; 0
      000242 00                    1769 	.db #0x00	; 0
      000243 00                    1770 	.db #0x00	; 0
      000244 00                    1771 	.db #0x00	; 0
      000245 00                    1772 	.db #0x00	; 0
      000246 00                    1773 	.db #0x00	; 0
      000247 00                    1774 	.db #0x00	; 0
      000248 00                    1775 	.db #0x00	; 0
      000249 00                    1776 	.db #0x00	; 0
      00024A 00                    1777 	.db #0x00	; 0
      00024B 00                    1778 	.db #0x00	; 0
      00024C 00                    1779 	.db #0x00	; 0
      00024D 00                    1780 	.db #0x00	; 0
      00024E 10                    1781 	.db #0x10	; 16
      00024F 00                    1782 	.db #0x00	; 0
      000250 08                    1783 	.db #0x08	; 8
      000251 00                    1784 	.db #0x00	; 0
      000252 0C                    1785 	.db #0x0c	; 12
      000253 08                    1786 	.db #0x08	; 8
      000254 1C                    1787 	.db #0x1c	; 28
      000255 1D                    1788 	.db #0x1d	; 29
      000256 3F                    1789 	.db #0x3f	; 63
      000257 36                    1790 	.db #0x36	; 54	'6'
      000258 07                    1791 	.db #0x07	; 7
      000259 3D                    1792 	.db #0x3d	; 61
      00025A 1F                    1793 	.db #0x1f	; 31
      00025B 07                    1794 	.db #0x07	; 7
      00025C 06                    1795 	.db #0x06	; 6
      00025D 02                    1796 	.db #0x02	; 2
      00025E 02                    1797 	.db #0x02	; 2
      00025F 00                    1798 	.db #0x00	; 0
      000260 00                    1799 	.db #0x00	; 0
      000261 00                    1800 	.db #0x00	; 0
      000262 00                    1801 	.db #0x00	; 0
      000263 00                    1802 	.db #0x00	; 0
      000264 00                    1803 	.db #0x00	; 0
      000265 00                    1804 	.db #0x00	; 0
      000266 00                    1805 	.db #0x00	; 0
      000267 00                    1806 	.db #0x00	; 0
      000268 00                    1807 	.db #0x00	; 0
      000269 00                    1808 	.db #0x00	; 0
      00026A 00                    1809 	.db #0x00	; 0
      00026B 00                    1810 	.db #0x00	; 0
      00026C 00                    1811 	.db #0x00	; 0
      00026D 00                    1812 	.db #0x00	; 0
      00026E 00                    1813 	.db #0x00	; 0
      00026F 00                    1814 	.db #0x00	; 0
      000270 00                    1815 	.db #0x00	; 0
      000271 00                    1816 	.db #0x00	; 0
      000272 00                    1817 	.db #0x00	; 0
      000273 00                    1818 	.db #0x00	; 0
      000274 00                    1819 	.db #0x00	; 0
      000275 00                    1820 	.db #0x00	; 0
      000276 00                    1821 	.db #0x00	; 0
      000277 A0                    1822 	.db #0xa0	; 160
      000278 A4                    1823 	.db #0xa4	; 164
      000279 D4                    1824 	.db #0xd4	; 212
      00027A F2                    1825 	.db #0xf2	; 242
      00027B BA                    1826 	.db #0xba	; 186
      00027C F8                    1827 	.db #0xf8	; 248
      00027D E8                    1828 	.db #0xe8	; 232
      00027E 10                    1829 	.db #0x10	; 16
      00027F 30                    1830 	.db #0x30	; 48	'0'
      000280 00                    1831 	.db #0x00	; 0
      000281 00                    1832 	.db #0x00	; 0
      000282 00                    1833 	.db #0x00	; 0
      000283 00                    1834 	.db #0x00	; 0
      000284 00                    1835 	.db #0x00	; 0
      000285 00                    1836 	.db #0x00	; 0
      000286 00                    1837 	.db #0x00	; 0
      000287 00                    1838 	.db #0x00	; 0
      000288 00                    1839 	.db #0x00	; 0
      000289 00                    1840 	.db #0x00	; 0
      00028A 10                    1841 	.db #0x10	; 16
      00028B 00                    1842 	.db #0x00	; 0
      00028C 08                    1843 	.db #0x08	; 8
      00028D 00                    1844 	.db #0x00	; 0
      00028E 0C                    1845 	.db #0x0c	; 12
      00028F 08                    1846 	.db #0x08	; 8
      000290 1C                    1847 	.db #0x1c	; 28
      000291 1D                    1848 	.db #0x1d	; 29
      000292 3F                    1849 	.db #0x3f	; 63
      000293 36                    1850 	.db #0x36	; 54	'6'
      000294 07                    1851 	.db #0x07	; 7
      000295 3D                    1852 	.db #0x3d	; 61
      000296 1F                    1853 	.db #0x1f	; 31
      000297 07                    1854 	.db #0x07	; 7
      000298 06                    1855 	.db #0x06	; 6
      000299 06                    1856 	.db #0x06	; 6
      00029A 01                    1857 	.db #0x01	; 1
      00029B 00                    1858 	.db #0x00	; 0
      00029C 00                    1859 	.db #0x00	; 0
      00029D 00                    1860 	.db #0x00	; 0
      00029E 00                    1861 	.db #0x00	; 0
      00029F 00                    1862 	.db #0x00	; 0
      0002A0 00                    1863 	.db #0x00	; 0
      0002A1 00                    1864 	.db #0x00	; 0
      0002A2 00                    1865 	.db #0x00	; 0
      0002A3 00                    1866 	.db #0x00	; 0
      0002A4 00                    1867 	.db #0x00	; 0
      0002A5 00                    1868 	.db #0x00	; 0
      0002A6 00                    1869 	.db #0x00	; 0
      0002A7 00                    1870 	.db #0x00	; 0
      0002A8 00                    1871 	.db #0x00	; 0
      0002A9 00                    1872 	.db #0x00	; 0
      0002AA 00                    1873 	.db #0x00	; 0
      0002AB 00                    1874 	.db #0x00	; 0
      0002AC 00                    1875 	.db #0x00	; 0
      0002AD 00                    1876 	.db #0x00	; 0
      0002AE 00                    1877 	.db #0x00	; 0
      0002AF 00                    1878 	.db #0x00	; 0
      0002B0 00                    1879 	.db #0x00	; 0
      0002B1 00                    1880 	.db #0x00	; 0
      0002B2 00                    1881 	.db #0x00	; 0
      0002B3 A0                    1882 	.db #0xa0	; 160
      0002B4 A4                    1883 	.db #0xa4	; 164
      0002B5 D4                    1884 	.db #0xd4	; 212
      0002B6 F2                    1885 	.db #0xf2	; 242
      0002B7 BA                    1886 	.db #0xba	; 186
      0002B8 F8                    1887 	.db #0xf8	; 248
      0002B9 F8                    1888 	.db #0xf8	; 248
      0002BA 18                    1889 	.db #0x18	; 24
      0002BB 10                    1890 	.db #0x10	; 16
      0002BC 04                    1891 	.db #0x04	; 4
      0002BD 84                    1892 	.db #0x84	; 132
      0002BE 04                    1893 	.db #0x04	; 4
      0002BF 0C                    1894 	.db #0x0c	; 12
      0002C0 00                    1895 	.db #0x00	; 0
      0002C1 00                    1896 	.db #0x00	; 0
      0002C2 00                    1897 	.db #0x00	; 0
      0002C3 00                    1898 	.db #0x00	; 0
      0002C4 00                    1899 	.db #0x00	; 0
      0002C5 00                    1900 	.db #0x00	; 0
      0002C6 00                    1901 	.db #0x00	; 0
      0002C7 00                    1902 	.db #0x00	; 0
      0002C8 00                    1903 	.db #0x00	; 0
      0002C9 00                    1904 	.db #0x00	; 0
      0002CA 00                    1905 	.db #0x00	; 0
      0002CB 00                    1906 	.db #0x00	; 0
      0002CC 00                    1907 	.db #0x00	; 0
      0002CD 00                    1908 	.db #0x00	; 0
      0002CE 00                    1909 	.db #0x00	; 0
      0002CF 00                    1910 	.db #0x00	; 0
      0002D0 00                    1911 	.db #0x00	; 0
      0002D1 00                    1912 	.db #0x00	; 0
      0002D2 02                    1913 	.db #0x02	; 2
      0002D3 02                    1914 	.db #0x02	; 2
      0002D4 03                    1915 	.db #0x03	; 3
      0002D5 03                    1916 	.db #0x03	; 3
      0002D6 03                    1917 	.db #0x03	; 3
      0002D7 01                    1918 	.db #0x01	; 1
      0002D8 07                    1919 	.db #0x07	; 7
      0002D9 07                    1920 	.db #0x07	; 7
      0002DA 01                    1921 	.db #0x01	; 1
      0002DB 01                    1922 	.db #0x01	; 1
      0002DC 01                    1923 	.db #0x01	; 1
      0002DD 01                    1924 	.db #0x01	; 1
      0002DE 03                    1925 	.db #0x03	; 3
      0002DF 01                    1926 	.db #0x01	; 1
      0002E0 00                    1927 	.db #0x00	; 0
      0002E1 00                    1928 	.db #0x00	; 0
      0002E2 00                    1929 	.db #0x00	; 0
      0002E3 00                    1930 	.db #0x00	; 0
      0002E4 00                    1931 	.db #0x00	; 0
      0002E5 00                    1932 	.db #0x00	; 0
      0002E6 00                    1933 	.db #0x00	; 0
      0002E7 00                    1934 	.db #0x00	; 0
      0002E8 00                    1935 	.db #0x00	; 0
      0002E9 00                    1936 	.db #0x00	; 0
      0002EA 00                    1937 	.db #0x00	; 0
      0002EB 00                    1938 	.db #0x00	; 0
      0002EC 00                    1939 	.db #0x00	; 0
      0002ED 00                    1940 	.db #0x00	; 0
      0002EE 00                    1941 	.db #0x00	; 0
      0002EF 00                    1942 	.db #0x00	; 0
      0002F0 00                    1943 	.db #0x00	; 0
      0002F1 00                    1944 	.db #0x00	; 0
      0002F2 00                    1945 	.db #0x00	; 0
      0002F3 00                    1946 	.db #0x00	; 0
      0002F4 70                    1947 	.db #0x70	; 112	'p'
      0002F5 00                    1948 	.db #0x00	; 0
      0002F6 F8                    1949 	.db #0xf8	; 248
      0002F7 F3                    1950 	.db #0xf3	; 243
      0002F8 DC                    1951 	.db #0xdc	; 220
      0002F9 FB                    1952 	.db #0xfb	; 251
      0002FA E4                    1953 	.db #0xe4	; 228
      0002FB FC                    1954 	.db #0xfc	; 252
      0002FC 9C                    1955 	.db #0x9c	; 156
      0002FD 9C                    1956 	.db #0x9c	; 156
      0002FE 38                    1957 	.db #0x38	; 56	'8'
      0002FF 18                    1958 	.db #0x18	; 24
      000300 00                    1959 	.db #0x00	; 0
      000301 00                    1960 	.db #0x00	; 0
      000302 00                    1961 	.db #0x00	; 0
      000303 00                    1962 	.db #0x00	; 0
      000304 00                    1963 	.db #0x00	; 0
      000305 00                    1964 	.db #0x00	; 0
      000306 00                    1965 	.db #0x00	; 0
      000307 00                    1966 	.db #0x00	; 0
      000308 00                    1967 	.db #0x00	; 0
      000309 00                    1968 	.db #0x00	; 0
      00030A 00                    1969 	.db #0x00	; 0
      00030B 00                    1970 	.db #0x00	; 0
      00030C 00                    1971 	.db #0x00	; 0
      00030D 00                    1972 	.db #0x00	; 0
      00030E 00                    1973 	.db #0x00	; 0
      00030F 00                    1974 	.db #0x00	; 0
      000310 00                    1975 	.db #0x00	; 0
      000311 00                    1976 	.db #0x00	; 0
      000312 00                    1977 	.db #0x00	; 0
      000313 00                    1978 	.db #0x00	; 0
      000314 00                    1979 	.db #0x00	; 0
      000315 00                    1980 	.db #0x00	; 0
      000316 18                    1981 	.db #0x18	; 24
      000317 18                    1982 	.db #0x18	; 24
      000318 1D                    1983 	.db #0x1d	; 29
      000319 0C                    1984 	.db #0x0c	; 12
      00031A 07                    1985 	.db #0x07	; 7
      00031B 1C                    1986 	.db #0x1c	; 28
      00031C 07                    1987 	.db #0x07	; 7
      00031D 07                    1988 	.db #0x07	; 7
      00031E 01                    1989 	.db #0x01	; 1
      00031F 0F                    1990 	.db #0x0f	; 15
      000320 00                    1991 	.db #0x00	; 0
      000321 00                    1992 	.db #0x00	; 0
      000322 00                    1993 	.db #0x00	; 0
      000323 00                    1994 	.db #0x00	; 0
      000324 00                    1995 	.db #0x00	; 0
      000325 00                    1996 	.db #0x00	; 0
      000326 00                    1997 	.db #0x00	; 0
      000327 00                    1998 	.db #0x00	; 0
      000328 00                    1999 	.db #0x00	; 0
      000329 00                    2000 	.db #0x00	; 0
      00032A 00                    2001 	.db #0x00	; 0
      00032B 00                    2002 	.db #0x00	; 0
      00032C 00                    2003 	.db #0x00	; 0
      00032D 00                    2004 	.db #0x00	; 0
      00032E 00                    2005 	.db #0x00	; 0
      00032F 00                    2006 	.db #0x00	; 0
      000330 00                    2007 	.db #0x00	; 0
      000331 00                    2008 	.db #0x00	; 0
      000332 00                    2009 	.db #0x00	; 0
      000333 00                    2010 	.db #0x00	; 0
      000334 00                    2011 	.db #0x00	; 0
      000335 00                    2012 	.db #0x00	; 0
      000336 60                    2013 	.db #0x60	; 96
      000337 80                    2014 	.db #0x80	; 128
      000338 90                    2015 	.db #0x90	; 144
      000339 60                    2016 	.db #0x60	; 96
      00033A 60                    2017 	.db #0x60	; 96
      00033B 98                    2018 	.db #0x98	; 152
      00033C D8                    2019 	.db #0xd8	; 216
      00033D 20                    2020 	.db #0x20	; 32
      00033E C0                    2021 	.db #0xc0	; 192
      00033F F8                    2022 	.db #0xf8	; 248
      000340 00                    2023 	.db #0x00	; 0
      000341 00                    2024 	.db #0x00	; 0
      000342 00                    2025 	.db #0x00	; 0
      000343 00                    2026 	.db #0x00	; 0
      000344 00                    2027 	.db #0x00	; 0
      000345 00                    2028 	.db #0x00	; 0
      000346 00                    2029 	.db #0x00	; 0
      000347 00                    2030 	.db #0x00	; 0
      000348 00                    2031 	.db #0x00	; 0
      000349 00                    2032 	.db #0x00	; 0
      00034A 00                    2033 	.db #0x00	; 0
      00034B 00                    2034 	.db #0x00	; 0
      00034C 00                    2035 	.db #0x00	; 0
      00034D 00                    2036 	.db #0x00	; 0
      00034E 00                    2037 	.db #0x00	; 0
      00034F 00                    2038 	.db #0x00	; 0
      000350 00                    2039 	.db #0x00	; 0
      000351 00                    2040 	.db #0x00	; 0
      000352 00                    2041 	.db #0x00	; 0
      000353 00                    2042 	.db #0x00	; 0
      000354 02                    2043 	.db #0x02	; 2
      000355 02                    2044 	.db #0x02	; 2
      000356 01                    2045 	.db #0x01	; 1
      000357 01                    2046 	.db #0x01	; 1
      000358 03                    2047 	.db #0x03	; 3
      000359 02                    2048 	.db #0x02	; 2
      00035A 07                    2049 	.db #0x07	; 7
      00035B 04                    2050 	.db #0x04	; 4
      00035C 07                    2051 	.db #0x07	; 7
      00035D 07                    2052 	.db #0x07	; 7
      00035E 01                    2053 	.db #0x01	; 1
      00035F 07                    2054 	.db #0x07	; 7
      000360 00                    2055 	.db #0x00	; 0
      000361 00                    2056 	.db #0x00	; 0
      000362 00                    2057 	.db #0x00	; 0
      000363 00                    2058 	.db #0x00	; 0
      000364 00                    2059 	.db #0x00	; 0
      000365 00                    2060 	.db #0x00	; 0
      000366 00                    2061 	.db #0x00	; 0
      000367 00                    2062 	.db #0x00	; 0
      000368 00                    2063 	.db #0x00	; 0
      000369 00                    2064 	.db #0x00	; 0
      00036A 00                    2065 	.db #0x00	; 0
      00036B 00                    2066 	.db #0x00	; 0
      00036C 00                    2067 	.db #0x00	; 0
      00036D 00                    2068 	.db #0x00	; 0
      00036E 00                    2069 	.db #0x00	; 0
      00036F 00                    2070 	.db #0x00	; 0
      000370 00                    2071 	.db #0x00	; 0
      000371 00                    2072 	.db #0x00	; 0
      000372 40                    2073 	.db #0x40	; 64
      000373 40                    2074 	.db #0x40	; 64
      000374 E8                    2075 	.db #0xe8	; 232
      000375 E8                    2076 	.db #0xe8	; 232
      000376 70                    2077 	.db #0x70	; 112	'p'
      000377 90                    2078 	.db #0x90	; 144
      000378 98                    2079 	.db #0x98	; 152
      000379 68                    2080 	.db #0x68	; 104	'h'
      00037A 64                    2081 	.db #0x64	; 100	'd'
      00037B 9C                    2082 	.db #0x9c	; 156
      00037C D8                    2083 	.db #0xd8	; 216
      00037D 20                    2084 	.db #0x20	; 32
      00037E C0                    2085 	.db #0xc0	; 192
      00037F F8                    2086 	.db #0xf8	; 248
      000380 00                    2087 	.db #0x00	; 0
      000381 00                    2088 	.db #0x00	; 0
      000382 00                    2089 	.db #0x00	; 0
      000383 00                    2090 	.db #0x00	; 0
      000384 00                    2091 	.db #0x00	; 0
      000385 00                    2092 	.db #0x00	; 0
      000386 00                    2093 	.db #0x00	; 0
      000387 00                    2094 	.db #0x00	; 0
      000388 00                    2095 	.db #0x00	; 0
      000389 00                    2096 	.db #0x00	; 0
      00038A 01                    2097 	.db #0x01	; 1
      00038B 01                    2098 	.db #0x01	; 1
      00038C 09                    2099 	.db #0x09	; 9
      00038D 19                    2100 	.db #0x19	; 25
      00038E 3F                    2101 	.db #0x3f	; 63
      00038F 0F                    2102 	.db #0x0f	; 15
      000390 0F                    2103 	.db #0x0f	; 15
      000391 07                    2104 	.db #0x07	; 7
      000392 07                    2105 	.db #0x07	; 7
      000393 07                    2106 	.db #0x07	; 7
      000394 01                    2107 	.db #0x01	; 1
      000395 01                    2108 	.db #0x01	; 1
      000396 00                    2109 	.db #0x00	; 0
      000397 00                    2110 	.db #0x00	; 0
      000398 02                    2111 	.db #0x02	; 2
      000399 02                    2112 	.db #0x02	; 2
      00039A 01                    2113 	.db #0x01	; 1
      00039B 01                    2114 	.db #0x01	; 1
      00039C 00                    2115 	.db #0x00	; 0
      00039D 00                    2116 	.db #0x00	; 0
      00039E 00                    2117 	.db #0x00	; 0
      00039F 00                    2118 	.db #0x00	; 0
      0003A0 00                    2119 	.db #0x00	; 0
      0003A1 00                    2120 	.db #0x00	; 0
      0003A2 00                    2121 	.db #0x00	; 0
      0003A3 00                    2122 	.db #0x00	; 0
      0003A4 00                    2123 	.db #0x00	; 0
      0003A5 00                    2124 	.db #0x00	; 0
      0003A6 7F                    2125 	.db #0x7f	; 127
      0003A7 7F                    2126 	.db #0x7f	; 127
      0003A8 F0                    2127 	.db #0xf0	; 240
      0003A9 FE                    2128 	.db #0xfe	; 254
      0003AA FC                    2129 	.db #0xfc	; 252
      0003AB FC                    2130 	.db #0xfc	; 252
      0003AC E0                    2131 	.db #0xe0	; 224
      0003AD FC                    2132 	.db #0xfc	; 252
      0003AE F8                    2133 	.db #0xf8	; 248
      0003AF F8                    2134 	.db #0xf8	; 248
      0003B0 C0                    2135 	.db #0xc0	; 192
      0003B1 F8                    2136 	.db #0xf8	; 248
      0003B2 E0                    2137 	.db #0xe0	; 224
      0003B3 E0                    2138 	.db #0xe0	; 224
      0003B4 E0                    2139 	.db #0xe0	; 224
      0003B5 E0                    2140 	.db #0xe0	; 224
      0003B6 C0                    2141 	.db #0xc0	; 192
      0003B7 C0                    2142 	.db #0xc0	; 192
      0003B8 C0                    2143 	.db #0xc0	; 192
      0003B9 C0                    2144 	.db #0xc0	; 192
      0003BA 80                    2145 	.db #0x80	; 128
      0003BB 80                    2146 	.db #0x80	; 128
      0003BC 80                    2147 	.db #0x80	; 128
      0003BD 80                    2148 	.db #0x80	; 128
      0003BE 40                    2149 	.db #0x40	; 64
      0003BF 40                    2150 	.db #0x40	; 64
      0003C0 00                    2151 	.db #0x00	; 0
      0003C1 00                    2152 	.db #0x00	; 0
      0003C2 00                    2153 	.db #0x00	; 0
      0003C3 03                    2154 	.db #0x03	; 3
      0003C4 01                    2155 	.db #0x01	; 1
      0003C5 07                    2156 	.db #0x07	; 7
      0003C6 03                    2157 	.db #0x03	; 3
      0003C7 0E                    2158 	.db #0x0e	; 14
      0003C8 05                    2159 	.db #0x05	; 5
      0003C9 1E                    2160 	.db #0x1e	; 30
      0003CA 03                    2161 	.db #0x03	; 3
      0003CB 1E                    2162 	.db #0x1e	; 30
      0003CC 05                    2163 	.db #0x05	; 5
      0003CD 1F                    2164 	.db #0x1f	; 31
      0003CE 03                    2165 	.db #0x03	; 3
      0003CF 1F                    2166 	.db #0x1f	; 31
      0003D0 03                    2167 	.db #0x03	; 3
      0003D1 1C                    2168 	.db #0x1c	; 28
      0003D2 03                    2169 	.db #0x03	; 3
      0003D3 1D                    2170 	.db #0x1d	; 29
      0003D4 03                    2171 	.db #0x03	; 3
      0003D5 1F                    2172 	.db #0x1f	; 31
      0003D6 03                    2173 	.db #0x03	; 3
      0003D7 1C                    2174 	.db #0x1c	; 28
      0003D8 03                    2175 	.db #0x03	; 3
      0003D9 3F                    2176 	.db #0x3f	; 63
      0003DA 03                    2177 	.db #0x03	; 3
      0003DB 0F                    2178 	.db #0x0f	; 15
      0003DC 06                    2179 	.db #0x06	; 6
      0003DD 06                    2180 	.db #0x06	; 6
      0003DE 04                    2181 	.db #0x04	; 4
      0003DF 04                    2182 	.db #0x04	; 4
      0003E0 00                    2183 	.db #0x00	; 0
      0003E1 00                    2184 	.db #0x00	; 0
      0003E2 00                    2185 	.db #0x00	; 0
      0003E3 C0                    2186 	.db #0xc0	; 192
      0003E4 00                    2187 	.db #0x00	; 0
      0003E5 E0                    2188 	.db #0xe0	; 224
      0003E6 E0                    2189 	.db #0xe0	; 224
      0003E7 00                    2190 	.db #0x00	; 0
      0003E8 40                    2191 	.db #0x40	; 64
      0003E9 A0                    2192 	.db #0xa0	; 160
      0003EA E0                    2193 	.db #0xe0	; 224
      0003EB 00                    2194 	.db #0x00	; 0
      0003EC E0                    2195 	.db #0xe0	; 224
      0003ED 20                    2196 	.db #0x20	; 32
      0003EE A0                    2197 	.db #0xa0	; 160
      0003EF E0                    2198 	.db #0xe0	; 224
      0003F0 B8                    2199 	.db #0xb8	; 184
      0003F1 E0                    2200 	.db #0xe0	; 224
      0003F2 B0                    2201 	.db #0xb0	; 176
      0003F3 E0                    2202 	.db #0xe0	; 224
      0003F4 A0                    2203 	.db #0xa0	; 160
      0003F5 E0                    2204 	.db #0xe0	; 224
      0003F6 E0                    2205 	.db #0xe0	; 224
      0003F7 00                    2206 	.db #0x00	; 0
      0003F8 E0                    2207 	.db #0xe0	; 224
      0003F9 E0                    2208 	.db #0xe0	; 224
      0003FA 20                    2209 	.db #0x20	; 32
      0003FB 20                    2210 	.db #0x20	; 32
      0003FC 20                    2211 	.db #0x20	; 32
      0003FD 20                    2212 	.db #0x20	; 32
      0003FE 30                    2213 	.db #0x30	; 48	'0'
      0003FF 30                    2214 	.db #0x30	; 48	'0'
      000400 00                    2215 	.db #0x00	; 0
      000401 00                    2216 	.db #0x00	; 0
      000402 00                    2217 	.db #0x00	; 0
      000403 00                    2218 	.db #0x00	; 0
      000404 00                    2219 	.db #0x00	; 0
      000405 00                    2220 	.db #0x00	; 0
      000406 00                    2221 	.db #0x00	; 0
      000407 00                    2222 	.db #0x00	; 0
      000408 00                    2223 	.db #0x00	; 0
      000409 00                    2224 	.db #0x00	; 0
      00040A 00                    2225 	.db #0x00	; 0
      00040B 00                    2226 	.db #0x00	; 0
      00040C 7F                    2227 	.db #0x7f	; 127
      00040D 7F                    2228 	.db #0x7f	; 127
      00040E FF                    2229 	.db #0xff	; 255
      00040F 80                    2230 	.db #0x80	; 128
      000410 AA                    2231 	.db #0xaa	; 170
      000411 D5                    2232 	.db #0xd5	; 213
      000412 D5                    2233 	.db #0xd5	; 213
      000413 AA                    2234 	.db #0xaa	; 170
      000414 FF                    2235 	.db #0xff	; 255
      000415 FF                    2236 	.db #0xff	; 255
      000416 00                    2237 	.db #0x00	; 0
      000417 00                    2238 	.db #0x00	; 0
      000418 00                    2239 	.db #0x00	; 0
      000419 00                    2240 	.db #0x00	; 0
      00041A 00                    2241 	.db #0x00	; 0
      00041B 00                    2242 	.db #0x00	; 0
      00041C 00                    2243 	.db #0x00	; 0
      00041D 00                    2244 	.db #0x00	; 0
      00041E 00                    2245 	.db #0x00	; 0
      00041F 00                    2246 	.db #0x00	; 0
      000420 00                    2247 	.db #0x00	; 0
      000421 00                    2248 	.db #0x00	; 0
      000422 00                    2249 	.db #0x00	; 0
      000423 00                    2250 	.db #0x00	; 0
      000424 00                    2251 	.db #0x00	; 0
      000425 00                    2252 	.db #0x00	; 0
      000426 00                    2253 	.db #0x00	; 0
      000427 00                    2254 	.db #0x00	; 0
      000428 00                    2255 	.db #0x00	; 0
      000429 00                    2256 	.db #0x00	; 0
      00042A 00                    2257 	.db #0x00	; 0
      00042B 00                    2258 	.db #0x00	; 0
      00042C FE                    2259 	.db #0xfe	; 254
      00042D FE                    2260 	.db #0xfe	; 254
      00042E FF                    2261 	.db #0xff	; 255
      00042F 01                    2262 	.db #0x01	; 1
      000430 81                    2263 	.db #0x81	; 129
      000431 7F                    2264 	.db #0x7f	; 127
      000432 01                    2265 	.db #0x01	; 1
      000433 FF                    2266 	.db #0xff	; 255
      000434 FF                    2267 	.db #0xff	; 255
      000435 FF                    2268 	.db #0xff	; 255
      000436 00                    2269 	.db #0x00	; 0
      000437 00                    2270 	.db #0x00	; 0
      000438 00                    2271 	.db #0x00	; 0
      000439 00                    2272 	.db #0x00	; 0
      00043A 00                    2273 	.db #0x00	; 0
      00043B 00                    2274 	.db #0x00	; 0
      00043C 00                    2275 	.db #0x00	; 0
      00043D 00                    2276 	.db #0x00	; 0
      00043E 00                    2277 	.db #0x00	; 0
      00043F 00                    2278 	.db #0x00	; 0
      000440 00                    2279 	.db #0x00	; 0
      000441 00                    2280 	.db #0x00	; 0
      000442 00                    2281 	.db #0x00	; 0
      000443 00                    2282 	.db #0x00	; 0
      000444 00                    2283 	.db #0x00	; 0
      000445 00                    2284 	.db #0x00	; 0
      000446 00                    2285 	.db #0x00	; 0
      000447 00                    2286 	.db #0x00	; 0
      000448 00                    2287 	.db #0x00	; 0
      000449 00                    2288 	.db #0x00	; 0
      00044A 00                    2289 	.db #0x00	; 0
      00044B 00                    2290 	.db #0x00	; 0
      00044C 7F                    2291 	.db #0x7f	; 127
      00044D 7F                    2292 	.db #0x7f	; 127
      00044E FF                    2293 	.db #0xff	; 255
      00044F F8                    2294 	.db #0xf8	; 248
      000450 FA                    2295 	.db #0xfa	; 250
      000451 FD                    2296 	.db #0xfd	; 253
      000452 FD                    2297 	.db #0xfd	; 253
      000453 FA                    2298 	.db #0xfa	; 250
      000454 FF                    2299 	.db #0xff	; 255
      000455 FF                    2300 	.db #0xff	; 255
      000456 00                    2301 	.db #0x00	; 0
      000457 00                    2302 	.db #0x00	; 0
      000458 00                    2303 	.db #0x00	; 0
      000459 00                    2304 	.db #0x00	; 0
      00045A 00                    2305 	.db #0x00	; 0
      00045B 00                    2306 	.db #0x00	; 0
      00045C 00                    2307 	.db #0x00	; 0
      00045D 00                    2308 	.db #0x00	; 0
      00045E 00                    2309 	.db #0x00	; 0
      00045F 00                    2310 	.db #0x00	; 0
      000460 00                    2311 	.db #0x00	; 0
      000461 00                    2312 	.db #0x00	; 0
      000462 00                    2313 	.db #0x00	; 0
      000463 00                    2314 	.db #0x00	; 0
      000464 00                    2315 	.db #0x00	; 0
      000465 00                    2316 	.db #0x00	; 0
      000466 00                    2317 	.db #0x00	; 0
      000467 00                    2318 	.db #0x00	; 0
      000468 00                    2319 	.db #0x00	; 0
      000469 00                    2320 	.db #0x00	; 0
      00046A 00                    2321 	.db #0x00	; 0
      00046B 00                    2322 	.db #0x00	; 0
      00046C FE                    2323 	.db #0xfe	; 254
      00046D FE                    2324 	.db #0xfe	; 254
      00046E FF                    2325 	.db #0xff	; 255
      00046F 01                    2326 	.db #0x01	; 1
      000470 81                    2327 	.db #0x81	; 129
      000471 7F                    2328 	.db #0x7f	; 127
      000472 01                    2329 	.db #0x01	; 1
      000473 FF                    2330 	.db #0xff	; 255
      000474 FF                    2331 	.db #0xff	; 255
      000475 FF                    2332 	.db #0xff	; 255
      000476 00                    2333 	.db #0x00	; 0
      000477 00                    2334 	.db #0x00	; 0
      000478 00                    2335 	.db #0x00	; 0
      000479 00                    2336 	.db #0x00	; 0
      00047A 00                    2337 	.db #0x00	; 0
      00047B 00                    2338 	.db #0x00	; 0
      00047C 00                    2339 	.db #0x00	; 0
      00047D 00                    2340 	.db #0x00	; 0
      00047E 00                    2341 	.db #0x00	; 0
      00047F 00                    2342 	.db #0x00	; 0
      000480 00                    2343 	.db #0x00	; 0
      000481 00                    2344 	.db #0x00	; 0
      000482 00                    2345 	.db #0x00	; 0
      000483 00                    2346 	.db #0x00	; 0
      000484 00                    2347 	.db #0x00	; 0
      000485 00                    2348 	.db #0x00	; 0
      000486 00                    2349 	.db #0x00	; 0
      000487 00                    2350 	.db #0x00	; 0
      000488 00                    2351 	.db #0x00	; 0
      000489 00                    2352 	.db #0x00	; 0
      00048A 00                    2353 	.db #0x00	; 0
      00048B 00                    2354 	.db #0x00	; 0
      00048C 7F                    2355 	.db #0x7f	; 127
      00048D 7F                    2356 	.db #0x7f	; 127
      00048E FF                    2357 	.db #0xff	; 255
      00048F FF                    2358 	.db #0xff	; 255
      000490 FF                    2359 	.db #0xff	; 255
      000491 FF                    2360 	.db #0xff	; 255
      000492 FF                    2361 	.db #0xff	; 255
      000493 FF                    2362 	.db #0xff	; 255
      000494 FF                    2363 	.db #0xff	; 255
      000495 FF                    2364 	.db #0xff	; 255
      000496 00                    2365 	.db #0x00	; 0
      000497 00                    2366 	.db #0x00	; 0
      000498 00                    2367 	.db #0x00	; 0
      000499 00                    2368 	.db #0x00	; 0
      00049A 00                    2369 	.db #0x00	; 0
      00049B 00                    2370 	.db #0x00	; 0
      00049C 00                    2371 	.db #0x00	; 0
      00049D 00                    2372 	.db #0x00	; 0
      00049E 00                    2373 	.db #0x00	; 0
      00049F 00                    2374 	.db #0x00	; 0
      0004A0 00                    2375 	.db #0x00	; 0
      0004A1 00                    2376 	.db #0x00	; 0
      0004A2 00                    2377 	.db #0x00	; 0
      0004A3 00                    2378 	.db #0x00	; 0
      0004A4 00                    2379 	.db #0x00	; 0
      0004A5 00                    2380 	.db #0x00	; 0
      0004A6 00                    2381 	.db #0x00	; 0
      0004A7 00                    2382 	.db #0x00	; 0
      0004A8 00                    2383 	.db #0x00	; 0
      0004A9 00                    2384 	.db #0x00	; 0
      0004AA 00                    2385 	.db #0x00	; 0
      0004AB 00                    2386 	.db #0x00	; 0
      0004AC FE                    2387 	.db #0xfe	; 254
      0004AD FE                    2388 	.db #0xfe	; 254
      0004AE FF                    2389 	.db #0xff	; 255
      0004AF 01                    2390 	.db #0x01	; 1
      0004B0 81                    2391 	.db #0x81	; 129
      0004B1 7F                    2392 	.db #0x7f	; 127
      0004B2 01                    2393 	.db #0x01	; 1
      0004B3 FF                    2394 	.db #0xff	; 255
      0004B4 FF                    2395 	.db #0xff	; 255
      0004B5 FF                    2396 	.db #0xff	; 255
      0004B6 00                    2397 	.db #0x00	; 0
      0004B7 00                    2398 	.db #0x00	; 0
      0004B8 00                    2399 	.db #0x00	; 0
      0004B9 00                    2400 	.db #0x00	; 0
      0004BA 00                    2401 	.db #0x00	; 0
      0004BB 00                    2402 	.db #0x00	; 0
      0004BC 00                    2403 	.db #0x00	; 0
      0004BD 00                    2404 	.db #0x00	; 0
      0004BE 00                    2405 	.db #0x00	; 0
      0004BF 00                    2406 	.db #0x00	; 0
      0004C0 00                    2407 	.db #0x00	; 0
      0004C1 00                    2408 	.db #0x00	; 0
      0004C2 00                    2409 	.db #0x00	; 0
      0004C3 00                    2410 	.db #0x00	; 0
      0004C4 00                    2411 	.db #0x00	; 0
      0004C5 00                    2412 	.db #0x00	; 0
      0004C6 00                    2413 	.db #0x00	; 0
      0004C7 00                    2414 	.db #0x00	; 0
      0004C8 00                    2415 	.db #0x00	; 0
      0004C9 00                    2416 	.db #0x00	; 0
      0004CA 00                    2417 	.db #0x00	; 0
      0004CB 00                    2418 	.db #0x00	; 0
      0004CC 7F                    2419 	.db #0x7f	; 127
      0004CD 7F                    2420 	.db #0x7f	; 127
      0004CE FF                    2421 	.db #0xff	; 255
      0004CF FF                    2422 	.db #0xff	; 255
      0004D0 FF                    2423 	.db #0xff	; 255
      0004D1 FF                    2424 	.db #0xff	; 255
      0004D2 FF                    2425 	.db #0xff	; 255
      0004D3 FF                    2426 	.db #0xff	; 255
      0004D4 FF                    2427 	.db #0xff	; 255
      0004D5 FF                    2428 	.db #0xff	; 255
      0004D6 00                    2429 	.db #0x00	; 0
      0004D7 00                    2430 	.db #0x00	; 0
      0004D8 00                    2431 	.db #0x00	; 0
      0004D9 00                    2432 	.db #0x00	; 0
      0004DA 00                    2433 	.db #0x00	; 0
      0004DB 00                    2434 	.db #0x00	; 0
      0004DC 00                    2435 	.db #0x00	; 0
      0004DD 00                    2436 	.db #0x00	; 0
      0004DE 00                    2437 	.db #0x00	; 0
      0004DF 00                    2438 	.db #0x00	; 0
      0004E0 00                    2439 	.db #0x00	; 0
      0004E1 00                    2440 	.db #0x00	; 0
      0004E2 00                    2441 	.db #0x00	; 0
      0004E3 00                    2442 	.db #0x00	; 0
      0004E4 00                    2443 	.db #0x00	; 0
      0004E5 00                    2444 	.db #0x00	; 0
      0004E6 00                    2445 	.db #0x00	; 0
      0004E7 00                    2446 	.db #0x00	; 0
      0004E8 00                    2447 	.db #0x00	; 0
      0004E9 00                    2448 	.db #0x00	; 0
      0004EA 00                    2449 	.db #0x00	; 0
      0004EB 00                    2450 	.db #0x00	; 0
      0004EC FE                    2451 	.db #0xfe	; 254
      0004ED FE                    2452 	.db #0xfe	; 254
      0004EE FF                    2453 	.db #0xff	; 255
      0004EF F1                    2454 	.db #0xf1	; 241
      0004F0 F1                    2455 	.db #0xf1	; 241
      0004F1 FF                    2456 	.db #0xff	; 255
      0004F2 F1                    2457 	.db #0xf1	; 241
      0004F3 FF                    2458 	.db #0xff	; 255
      0004F4 FF                    2459 	.db #0xff	; 255
      0004F5 FF                    2460 	.db #0xff	; 255
      0004F6 00                    2461 	.db #0x00	; 0
      0004F7 00                    2462 	.db #0x00	; 0
      0004F8 00                    2463 	.db #0x00	; 0
      0004F9 00                    2464 	.db #0x00	; 0
      0004FA 00                    2465 	.db #0x00	; 0
      0004FB 00                    2466 	.db #0x00	; 0
      0004FC 00                    2467 	.db #0x00	; 0
      0004FD 00                    2468 	.db #0x00	; 0
      0004FE 00                    2469 	.db #0x00	; 0
      0004FF 00                    2470 	.db #0x00	; 0
      000500                       2471 __xinit__town_001_t:
      000500 00                    2472 	.db #0x00	; 0
      000501 00                    2473 	.db #0x00	; 0
      000502 00                    2474 	.db #0x00	; 0
      000503 00                    2475 	.db #0x00	; 0
      000504 00                    2476 	.db #0x00	; 0
      000505 00                    2477 	.db #0x00	; 0
      000506 00                    2478 	.db #0x00	; 0
      000507 00                    2479 	.db #0x00	; 0
      000508 00                    2480 	.db #0x00	; 0
      000509 00                    2481 	.db #0x00	; 0
      00050A 00                    2482 	.db #0x00	; 0
      00050B 00                    2483 	.db #0x00	; 0
      00050C 00                    2484 	.db #0x00	; 0
      00050D 00                    2485 	.db #0x00	; 0
      00050E 00                    2486 	.db #0x00	; 0
      00050F 00                    2487 	.db #0x00	; 0
      000510 FD                    2488 	.db #0xfd	; 253
      000511 BF                    2489 	.db #0xbf	; 191
      000512 D3                    2490 	.db #0xd3	; 211
      000513 CF                    2491 	.db #0xcf	; 207
      000514 FD                    2492 	.db #0xfd	; 253
      000515 BF                    2493 	.db #0xbf	; 191
      000516 D3                    2494 	.db #0xd3	; 211
      000517 CF                    2495 	.db #0xcf	; 207
      000518 D1                    2496 	.db #0xd1	; 209
      000519 8F                    2497 	.db #0x8f	; 143
      00051A FD                    2498 	.db #0xfd	; 253
      00051B BF                    2499 	.db #0xbf	; 191
      00051C D3                    2500 	.db #0xd3	; 211
      00051D CF                    2501 	.db #0xcf	; 207
      00051E D1                    2502 	.db #0xd1	; 209
      00051F 8F                    2503 	.db #0x8f	; 143
      000520 00                    2504 	.db #0x00	; 0
      000521 88                    2505 	.db #0x88	; 136
      000522 00                    2506 	.db #0x00	; 0
      000523 FF                    2507 	.db #0xff	; 255
      000524 1C                    2508 	.db #0x1c	; 28
      000525 22                    2509 	.db #0x22	; 34
      000526 00                    2510 	.db #0x00	; 0
      000527 FF                    2511 	.db #0xff	; 255
      000528 70                    2512 	.db #0x70	; 112	'p'
      000529 88                    2513 	.db #0x88	; 136
      00052A 00                    2514 	.db #0x00	; 0
      00052B FF                    2515 	.db #0xff	; 255
      00052C 00                    2516 	.db #0x00	; 0
      00052D 22                    2517 	.db #0x22	; 34
      00052E 00                    2518 	.db #0x00	; 0
      00052F FF                    2519 	.db #0xff	; 255
      000530 07                    2520 	.db #0x07	; 7
      000531 88                    2521 	.db #0x88	; 136
      000532 00                    2522 	.db #0x00	; 0
      000533 FF                    2523 	.db #0xff	; 255
      000534 1D                    2524 	.db #0x1d	; 29
      000535 22                    2525 	.db #0x22	; 34
      000536 00                    2526 	.db #0x00	; 0
      000537 FF                    2527 	.db #0xff	; 255
      000538 77                    2528 	.db #0x77	; 119	'w'
      000539 88                    2529 	.db #0x88	; 136
      00053A 00                    2530 	.db #0x00	; 0
      00053B FF                    2531 	.db #0xff	; 255
      00053C 01                    2532 	.db #0x01	; 1
      00053D 22                    2533 	.db #0x22	; 34
      00053E 00                    2534 	.db #0x00	; 0
      00053F FF                    2535 	.db #0xff	; 255
      000540 00                    2536 	.db #0x00	; 0
      000541 88                    2537 	.db #0x88	; 136
      000542 00                    2538 	.db #0x00	; 0
      000543 FF                    2539 	.db #0xff	; 255
      000544 DC                    2540 	.db #0xdc	; 220
      000545 22                    2541 	.db #0x22	; 34
      000546 00                    2542 	.db #0x00	; 0
      000547 FF                    2543 	.db #0xff	; 255
      000548 70                    2544 	.db #0x70	; 112	'p'
      000549 88                    2545 	.db #0x88	; 136
      00054A 00                    2546 	.db #0x00	; 0
      00054B FF                    2547 	.db #0xff	; 255
      00054C C0                    2548 	.db #0xc0	; 192
      00054D 22                    2549 	.db #0x22	; 34
      00054E 00                    2550 	.db #0x00	; 0
      00054F FF                    2551 	.db #0xff	; 255
      000550 F9                    2552 	.db #0xf9	; 249
      000551 06                    2553 	.db #0x06	; 6
      000552 F3                    2554 	.db #0xf3	; 243
      000553 0D                    2555 	.db #0x0d	; 13
      000554 EF                    2556 	.db #0xef	; 239
      000555 19                    2557 	.db #0x19	; 25
      000556 CF                    2558 	.db #0xcf	; 207
      000557 29                    2559 	.db #0x29	; 41
      000558 DF                    2560 	.db #0xdf	; 223
      000559 29                    2561 	.db #0x29	; 41
      00055A BF                    2562 	.db #0xbf	; 191
      00055B 49                    2563 	.db #0x49	; 73	'I'
      00055C BF                    2564 	.db #0xbf	; 191
      00055D 7F                    2565 	.db #0x7f	; 127
      00055E 9B                    2566 	.db #0x9b	; 155
      00055F 49                    2567 	.db #0x49	; 73	'I'
      000560 3F                    2568 	.db #0x3f	; 63
      000561 C0                    2569 	.db #0xc0	; 192
      000562 1F                    2570 	.db #0x1f	; 31
      000563 60                    2571 	.db #0x60	; 96
      000564 EF                    2572 	.db #0xef	; 239
      000565 30                    2573 	.db #0x30	; 48	'0'
      000566 E7                    2574 	.db #0xe7	; 231
      000567 28                    2575 	.db #0x28	; 40
      000568 F7                    2576 	.db #0xf7	; 247
      000569 28                    2577 	.db #0x28	; 40
      00056A FB                    2578 	.db #0xfb	; 251
      00056B 24                    2579 	.db #0x24	; 36
      00056C FB                    2580 	.db #0xfb	; 251
      00056D FC                    2581 	.db #0xfc	; 252
      00056E 6B                    2582 	.db #0x6b	; 107	'k'
      00056F 24                    2583 	.db #0x24	; 36
      000570 BF                    2584 	.db #0xbf	; 191
      000571 49                    2585 	.db #0x49	; 73	'I'
      000572 BF                    2586 	.db #0xbf	; 191
      000573 7F                    2587 	.db #0x7f	; 127
      000574 9B                    2588 	.db #0x9b	; 155
      000575 49                    2589 	.db #0x49	; 73	'I'
      000576 BF                    2590 	.db #0xbf	; 191
      000577 49                    2591 	.db #0x49	; 73	'I'
      000578 FF                    2592 	.db #0xff	; 255
      000579 FF                    2593 	.db #0xff	; 255
      00057A FF                    2594 	.db #0xff	; 255
      00057B FF                    2595 	.db #0xff	; 255
      00057C 80                    2596 	.db #0x80	; 128
      00057D 7F                    2597 	.db #0x7f	; 127
      00057E FF                    2598 	.db #0xff	; 255
      00057F 3F                    2599 	.db #0x3f	; 63
      000580 FB                    2600 	.db #0xfb	; 251
      000581 24                    2601 	.db #0x24	; 36
      000582 FB                    2602 	.db #0xfb	; 251
      000583 FC                    2603 	.db #0xfc	; 252
      000584 B3                    2604 	.db #0xb3	; 179
      000585 24                    2605 	.db #0x24	; 36
      000586 FB                    2606 	.db #0xfb	; 251
      000587 24                    2607 	.db #0x24	; 36
      000588 FF                    2608 	.db #0xff	; 255
      000589 FE                    2609 	.db #0xfe	; 254
      00058A FF                    2610 	.db #0xff	; 255
      00058B FE                    2611 	.db #0xfe	; 254
      00058C 03                    2612 	.db #0x03	; 3
      00058D FC                    2613 	.db #0xfc	; 252
      00058E FF                    2614 	.db #0xff	; 255
      00058F F8                    2615 	.db #0xf8	; 248
      000590 80                    2616 	.db #0x80	; 128
      000591 00                    2617 	.db #0x00	; 0
      000592 80                    2618 	.db #0x80	; 128
      000593 00                    2619 	.db #0x00	; 0
      000594 80                    2620 	.db #0x80	; 128
      000595 00                    2621 	.db #0x00	; 0
      000596 80                    2622 	.db #0x80	; 128
      000597 00                    2623 	.db #0x00	; 0
      000598 80                    2624 	.db #0x80	; 128
      000599 00                    2625 	.db #0x00	; 0
      00059A 80                    2626 	.db #0x80	; 128
      00059B 00                    2627 	.db #0x00	; 0
      00059C 80                    2628 	.db #0x80	; 128
      00059D 00                    2629 	.db #0x00	; 0
      00059E 80                    2630 	.db #0x80	; 128
      00059F 00                    2631 	.db #0x00	; 0
      0005A0 80                    2632 	.db #0x80	; 128
      0005A1 77                    2633 	.db #0x77	; 119	'w'
      0005A2 80                    2634 	.db #0x80	; 128
      0005A3 29                    2635 	.db #0x29	; 41
      0005A4 80                    2636 	.db #0x80	; 128
      0005A5 2A                    2637 	.db #0x2a	; 42
      0005A6 80                    2638 	.db #0x80	; 128
      0005A7 2A                    2639 	.db #0x2a	; 42
      0005A8 80                    2640 	.db #0x80	; 128
      0005A9 2C                    2641 	.db #0x2c	; 44
      0005AA 80                    2642 	.db #0x80	; 128
      0005AB 78                    2643 	.db #0x78	; 120	'x'
      0005AC 80                    2644 	.db #0x80	; 128
      0005AD 78                    2645 	.db #0x78	; 120	'x'
      0005AE 80                    2646 	.db #0x80	; 128
      0005AF 78                    2647 	.db #0x78	; 120	'x'
      0005B0 80                    2648 	.db #0x80	; 128
      0005B1 70                    2649 	.db #0x70	; 112	'p'
      0005B2 80                    2650 	.db #0x80	; 128
      0005B3 70                    2651 	.db #0x70	; 112	'p'
      0005B4 80                    2652 	.db #0x80	; 128
      0005B5 60                    2653 	.db #0x60	; 96
      0005B6 80                    2654 	.db #0x80	; 128
      0005B7 40                    2655 	.db #0x40	; 64
      0005B8 80                    2656 	.db #0x80	; 128
      0005B9 00                    2657 	.db #0x00	; 0
      0005BA 80                    2658 	.db #0x80	; 128
      0005BB 00                    2659 	.db #0x00	; 0
      0005BC 80                    2660 	.db #0x80	; 128
      0005BD 00                    2661 	.db #0x00	; 0
      0005BE 80                    2662 	.db #0x80	; 128
      0005BF 00                    2663 	.db #0x00	; 0
      0005C0 01                    2664 	.db #0x01	; 1
      0005C1 00                    2665 	.db #0x00	; 0
      0005C2 01                    2666 	.db #0x01	; 1
      0005C3 00                    2667 	.db #0x00	; 0
      0005C4 01                    2668 	.db #0x01	; 1
      0005C5 00                    2669 	.db #0x00	; 0
      0005C6 01                    2670 	.db #0x01	; 1
      0005C7 00                    2671 	.db #0x00	; 0
      0005C8 01                    2672 	.db #0x01	; 1
      0005C9 00                    2673 	.db #0x00	; 0
      0005CA 01                    2674 	.db #0x01	; 1
      0005CB 00                    2675 	.db #0x00	; 0
      0005CC 01                    2676 	.db #0x01	; 1
      0005CD 00                    2677 	.db #0x00	; 0
      0005CE 01                    2678 	.db #0x01	; 1
      0005CF 00                    2679 	.db #0x00	; 0
      0005D0 01                    2680 	.db #0x01	; 1
      0005D1 00                    2681 	.db #0x00	; 0
      0005D2 01                    2682 	.db #0x01	; 1
      0005D3 00                    2683 	.db #0x00	; 0
      0005D4 01                    2684 	.db #0x01	; 1
      0005D5 00                    2685 	.db #0x00	; 0
      0005D6 01                    2686 	.db #0x01	; 1
      0005D7 00                    2687 	.db #0x00	; 0
      0005D8 01                    2688 	.db #0x01	; 1
      0005D9 EE                    2689 	.db #0xee	; 238
      0005DA 01                    2690 	.db #0x01	; 1
      0005DB 94                    2691 	.db #0x94	; 148
      0005DC 01                    2692 	.db #0x01	; 1
      0005DD 54                    2693 	.db #0x54	; 84	'T'
      0005DE 01                    2694 	.db #0x01	; 1
      0005DF 54                    2695 	.db #0x54	; 84	'T'
      0005E0 01                    2696 	.db #0x01	; 1
      0005E1 34                    2697 	.db #0x34	; 52	'4'
      0005E2 01                    2698 	.db #0x01	; 1
      0005E3 1E                    2699 	.db #0x1e	; 30
      0005E4 01                    2700 	.db #0x01	; 1
      0005E5 1E                    2701 	.db #0x1e	; 30
      0005E6 01                    2702 	.db #0x01	; 1
      0005E7 1E                    2703 	.db #0x1e	; 30
      0005E8 01                    2704 	.db #0x01	; 1
      0005E9 0E                    2705 	.db #0x0e	; 14
      0005EA 01                    2706 	.db #0x01	; 1
      0005EB 0E                    2707 	.db #0x0e	; 14
      0005EC 01                    2708 	.db #0x01	; 1
      0005ED 06                    2709 	.db #0x06	; 6
      0005EE 01                    2710 	.db #0x01	; 1
      0005EF 02                    2711 	.db #0x02	; 2
      0005F0 3F                    2712 	.db #0x3f	; 63
      0005F1 00                    2713 	.db #0x00	; 0
      0005F2 3F                    2714 	.db #0x3f	; 63
      0005F3 1F                    2715 	.db #0x1f	; 31
      0005F4 24                    2716 	.db #0x24	; 36
      0005F5 1F                    2717 	.db #0x1f	; 31
      0005F6 3F                    2718 	.db #0x3f	; 63
      0005F7 0F                    2719 	.db #0x0f	; 15
      0005F8 0C                    2720 	.db #0x0c	; 12
      0005F9 07                    2721 	.db #0x07	; 7
      0005FA 0F                    2722 	.db #0x0f	; 15
      0005FB 03                    2723 	.db #0x03	; 3
      0005FC 02                    2724 	.db #0x02	; 2
      0005FD 01                    2725 	.db #0x01	; 1
      0005FE 03                    2726 	.db #0x03	; 3
      0005FF 00                    2727 	.db #0x00	; 0
      000600 FC                    2728 	.db #0xfc	; 252
      000601 00                    2729 	.db #0x00	; 0
      000602 FC                    2730 	.db #0xfc	; 252
      000603 F8                    2731 	.db #0xf8	; 248
      000604 24                    2732 	.db #0x24	; 36
      000605 F8                    2733 	.db #0xf8	; 248
      000606 FC                    2734 	.db #0xfc	; 252
      000607 F0                    2735 	.db #0xf0	; 240
      000608 30                    2736 	.db #0x30	; 48	'0'
      000609 E0                    2737 	.db #0xe0	; 224
      00060A F0                    2738 	.db #0xf0	; 240
      00060B C0                    2739 	.db #0xc0	; 192
      00060C 40                    2740 	.db #0x40	; 64
      00060D 80                    2741 	.db #0x80	; 128
      00060E C0                    2742 	.db #0xc0	; 192
      00060F 00                    2743 	.db #0x00	; 0
      000610 FC                    2744 	.db #0xfc	; 252
      000611 FF                    2745 	.db #0xff	; 255
      000612 FC                    2746 	.db #0xfc	; 252
      000613 FF                    2747 	.db #0xff	; 255
      000614 FE                    2748 	.db #0xfe	; 254
      000615 FF                    2749 	.db #0xff	; 255
      000616 F8                    2750 	.db #0xf8	; 248
      000617 FF                    2751 	.db #0xff	; 255
      000618 FF                    2752 	.db #0xff	; 255
      000619 E3                    2753 	.db #0xe3	; 227
      00061A 8C                    2754 	.db #0x8c	; 140
      00061B FF                    2755 	.db #0xff	; 255
      00061C F2                    2756 	.db #0xf2	; 242
      00061D 3D                    2757 	.db #0x3d	; 61
      00061E CE                    2758 	.db #0xce	; 206
      00061F F1                    2759 	.db #0xf1	; 241
      000620 3E                    2760 	.db #0x3e	; 62
      000621 C1                    2761 	.db #0xc1	; 193
      000622 62                    2762 	.db #0x62	; 98	'b'
      000623 9D                    2763 	.db #0x9d	; 157
      000624 42                    2764 	.db #0x42	; 66	'B'
      000625 A5                    2765 	.db #0xa5	; 165
      000626 C2                    2766 	.db #0xc2	; 194
      000627 25                    2767 	.db #0x25	; 37
      000628 82                    2768 	.db #0x82	; 130
      000629 45                    2769 	.db #0x45	; 69	'E'
      00062A 82                    2770 	.db #0x82	; 130
      00062B 7D                    2771 	.db #0x7d	; 125
      00062C FE                    2772 	.db #0xfe	; 254
      00062D 01                    2773 	.db #0x01	; 1
      00062E 00                    2774 	.db #0x00	; 0
      00062F FF                    2775 	.db #0xff	; 255
      000630 FE                    2776 	.db #0xfe	; 254
      000631 01                    2777 	.db #0x01	; 1
      000632 C6                    2778 	.db #0xc6	; 198
      000633 39                    2779 	.db #0x39	; 57	'9'
      000634 82                    2780 	.db #0x82	; 130
      000635 55                    2781 	.db #0x55	; 85	'U'
      000636 82                    2782 	.db #0x82	; 130
      000637 7D                    2783 	.db #0x7d	; 125
      000638 82                    2784 	.db #0x82	; 130
      000639 55                    2785 	.db #0x55	; 85	'U'
      00063A 82                    2786 	.db #0x82	; 130
      00063B 7D                    2787 	.db #0x7d	; 125
      00063C FE                    2788 	.db #0xfe	; 254
      00063D 01                    2789 	.db #0x01	; 1
      00063E 00                    2790 	.db #0x00	; 0
      00063F FF                    2791 	.db #0xff	; 255
      000640 E0                    2792 	.db #0xe0	; 224
      000641 F1                    2793 	.db #0xf1	; 241
      000642 00                    2794 	.db #0x00	; 0
      000643 FF                    2795 	.db #0xff	; 255
      000644 BF                    2796 	.db #0xbf	; 191
      000645 C7                    2797 	.db #0xc7	; 199
      000646 0F                    2798 	.db #0x0f	; 15
      000647 FF                    2799 	.db #0xff	; 255
      000648 DF                    2800 	.db #0xdf	; 223
      000649 FF                    2801 	.db #0xff	; 255
      00064A 3F                    2802 	.db #0x3f	; 63
      00064B FF                    2803 	.db #0xff	; 255
      00064C BF                    2804 	.db #0xbf	; 191
      00064D FF                    2805 	.db #0xff	; 255
      00064E 7C                    2806 	.db #0x7c	; 124
      00064F FF                    2807 	.db #0xff	; 255
      000650 FF                    2808 	.db #0xff	; 255
      000651 FD                    2809 	.db #0xfd	; 253
      000652 FF                    2810 	.db #0xff	; 255
      000653 FD                    2811 	.db #0xfd	; 253
      000654 F9                    2812 	.db #0xf9	; 249
      000655 FF                    2813 	.db #0xff	; 255
      000656 FE                    2814 	.db #0xfe	; 254
      000657 FB                    2815 	.db #0xfb	; 251
      000658 F2                    2816 	.db #0xf2	; 242
      000659 FF                    2817 	.db #0xff	; 255
      00065A FD                    2818 	.db #0xfd	; 253
      00065B F6                    2819 	.db #0xf6	; 246
      00065C F5                    2820 	.db #0xf5	; 245
      00065D FE                    2821 	.db #0xfe	; 254
      00065E FC                    2822 	.db #0xfc	; 252
      00065F F7                    2823 	.db #0xf7	; 247
      000660 F5                    2824 	.db #0xf5	; 245
      000661 FE                    2825 	.db #0xfe	; 254
      000662 FD                    2826 	.db #0xfd	; 253
      000663 F6                    2827 	.db #0xf6	; 246
      000664 F5                    2828 	.db #0xf5	; 245
      000665 FE                    2829 	.db #0xfe	; 254
      000666 FD                    2830 	.db #0xfd	; 253
      000667 E6                    2831 	.db #0xe6	; 230
      000668 85                    2832 	.db #0x85	; 133
      000669 FE                    2833 	.db #0xfe	; 254
      00066A FD                    2834 	.db #0xfd	; 253
      00066B 86                    2835 	.db #0x86	; 134
      00066C E5                    2836 	.db #0xe5	; 229
      00066D FE                    2837 	.db #0xfe	; 254
      00066E FC                    2838 	.db #0xfc	; 252
      00066F F7                    2839 	.db #0xf7	; 247
      000670 F5                    2840 	.db #0xf5	; 245
      000671 FE                    2841 	.db #0xfe	; 254
      000672 FD                    2842 	.db #0xfd	; 253
      000673 F6                    2843 	.db #0xf6	; 246
      000674 F5                    2844 	.db #0xf5	; 245
      000675 FE                    2845 	.db #0xfe	; 254
      000676 FD                    2846 	.db #0xfd	; 253
      000677 F6                    2847 	.db #0xf6	; 246
      000678 F5                    2848 	.db #0xf5	; 245
      000679 FE                    2849 	.db #0xfe	; 254
      00067A FD                    2850 	.db #0xfd	; 253
      00067B E6                    2851 	.db #0xe6	; 230
      00067C C5                    2852 	.db #0xc5	; 197
      00067D FE                    2853 	.db #0xfe	; 254
      00067E FC                    2854 	.db #0xfc	; 252
      00067F 87                    2855 	.db #0x87	; 135
      000680 3F                    2856 	.db #0x3f	; 63
      000681 FF                    2857 	.db #0xff	; 255
      000682 3F                    2858 	.db #0x3f	; 63
      000683 FF                    2859 	.db #0xff	; 255
      000684 7F                    2860 	.db #0x7f	; 127
      000685 FF                    2861 	.db #0xff	; 255
      000686 1F                    2862 	.db #0x1f	; 31
      000687 FF                    2863 	.db #0xff	; 255
      000688 FF                    2864 	.db #0xff	; 255
      000689 C7                    2865 	.db #0xc7	; 199
      00068A 31                    2866 	.db #0x31	; 49	'1'
      00068B FF                    2867 	.db #0xff	; 255
      00068C 4F                    2868 	.db #0x4f	; 79	'O'
      00068D BC                    2869 	.db #0xbc	; 188
      00068E 73                    2870 	.db #0x73	; 115	's'
      00068F 8F                    2871 	.db #0x8f	; 143
      000690 7C                    2872 	.db #0x7c	; 124
      000691 83                    2873 	.db #0x83	; 131
      000692 46                    2874 	.db #0x46	; 70	'F'
      000693 B9                    2875 	.db #0xb9	; 185
      000694 42                    2876 	.db #0x42	; 66	'B'
      000695 A5                    2877 	.db #0xa5	; 165
      000696 43                    2878 	.db #0x43	; 67	'C'
      000697 A4                    2879 	.db #0xa4	; 164
      000698 41                    2880 	.db #0x41	; 65	'A'
      000699 A2                    2881 	.db #0xa2	; 162
      00069A 41                    2882 	.db #0x41	; 65	'A'
      00069B BE                    2883 	.db #0xbe	; 190
      00069C 7F                    2884 	.db #0x7f	; 127
      00069D 80                    2885 	.db #0x80	; 128
      00069E 00                    2886 	.db #0x00	; 0
      00069F FF                    2887 	.db #0xff	; 255
      0006A0 7F                    2888 	.db #0x7f	; 127
      0006A1 80                    2889 	.db #0x80	; 128
      0006A2 63                    2890 	.db #0x63	; 99	'c'
      0006A3 9C                    2891 	.db #0x9c	; 156
      0006A4 41                    2892 	.db #0x41	; 65	'A'
      0006A5 AA                    2893 	.db #0xaa	; 170
      0006A6 41                    2894 	.db #0x41	; 65	'A'
      0006A7 BE                    2895 	.db #0xbe	; 190
      0006A8 41                    2896 	.db #0x41	; 65	'A'
      0006A9 AA                    2897 	.db #0xaa	; 170
      0006AA 41                    2898 	.db #0x41	; 65	'A'
      0006AB BE                    2899 	.db #0xbe	; 190
      0006AC 7F                    2900 	.db #0x7f	; 127
      0006AD 80                    2901 	.db #0x80	; 128
      0006AE 00                    2902 	.db #0x00	; 0
      0006AF FF                    2903 	.db #0xff	; 255
      0006B0 07                    2904 	.db #0x07	; 7
      0006B1 8F                    2905 	.db #0x8f	; 143
      0006B2 00                    2906 	.db #0x00	; 0
      0006B3 FF                    2907 	.db #0xff	; 255
      0006B4 FD                    2908 	.db #0xfd	; 253
      0006B5 E3                    2909 	.db #0xe3	; 227
      0006B6 F0                    2910 	.db #0xf0	; 240
      0006B7 FF                    2911 	.db #0xff	; 255
      0006B8 FB                    2912 	.db #0xfb	; 251
      0006B9 FF                    2913 	.db #0xff	; 255
      0006BA FC                    2914 	.db #0xfc	; 252
      0006BB FF                    2915 	.db #0xff	; 255
      0006BC FD                    2916 	.db #0xfd	; 253
      0006BD FF                    2917 	.db #0xff	; 255
      0006BE 3E                    2918 	.db #0x3e	; 62
      0006BF FF                    2919 	.db #0xff	; 255
      0006C0 FF                    2920 	.db #0xff	; 255
      0006C1 BF                    2921 	.db #0xbf	; 191
      0006C2 FF                    2922 	.db #0xff	; 255
      0006C3 BF                    2923 	.db #0xbf	; 191
      0006C4 9F                    2924 	.db #0x9f	; 159
      0006C5 FF                    2925 	.db #0xff	; 255
      0006C6 7F                    2926 	.db #0x7f	; 127
      0006C7 DF                    2927 	.db #0xdf	; 223
      0006C8 4F                    2928 	.db #0x4f	; 79	'O'
      0006C9 FF                    2929 	.db #0xff	; 255
      0006CA BF                    2930 	.db #0xbf	; 191
      0006CB 6F                    2931 	.db #0x6f	; 111	'o'
      0006CC AF                    2932 	.db #0xaf	; 175
      0006CD 7F                    2933 	.db #0x7f	; 127
      0006CE 3F                    2934 	.db #0x3f	; 63
      0006CF EF                    2935 	.db #0xef	; 239
      0006D0 AF                    2936 	.db #0xaf	; 175
      0006D1 7F                    2937 	.db #0x7f	; 127
      0006D2 BF                    2938 	.db #0xbf	; 191
      0006D3 6F                    2939 	.db #0x6f	; 111	'o'
      0006D4 AF                    2940 	.db #0xaf	; 175
      0006D5 7F                    2941 	.db #0x7f	; 127
      0006D6 BF                    2942 	.db #0xbf	; 191
      0006D7 67                    2943 	.db #0x67	; 103	'g'
      0006D8 A1                    2944 	.db #0xa1	; 161
      0006D9 7F                    2945 	.db #0x7f	; 127
      0006DA BF                    2946 	.db #0xbf	; 191
      0006DB 61                    2947 	.db #0x61	; 97	'a'
      0006DC A7                    2948 	.db #0xa7	; 167
      0006DD 7F                    2949 	.db #0x7f	; 127
      0006DE 3F                    2950 	.db #0x3f	; 63
      0006DF EF                    2951 	.db #0xef	; 239
      0006E0 AF                    2952 	.db #0xaf	; 175
      0006E1 7F                    2953 	.db #0x7f	; 127
      0006E2 BF                    2954 	.db #0xbf	; 191
      0006E3 6F                    2955 	.db #0x6f	; 111	'o'
      0006E4 AF                    2956 	.db #0xaf	; 175
      0006E5 7F                    2957 	.db #0x7f	; 127
      0006E6 BF                    2958 	.db #0xbf	; 191
      0006E7 6F                    2959 	.db #0x6f	; 111	'o'
      0006E8 AF                    2960 	.db #0xaf	; 175
      0006E9 7F                    2961 	.db #0x7f	; 127
      0006EA BF                    2962 	.db #0xbf	; 191
      0006EB 67                    2963 	.db #0x67	; 103	'g'
      0006EC A3                    2964 	.db #0xa3	; 163
      0006ED 7F                    2965 	.db #0x7f	; 127
      0006EE 3F                    2966 	.db #0x3f	; 63
      0006EF E1                    2967 	.db #0xe1	; 225
      0006F0 0F                    2968 	.db #0x0f	; 15
      0006F1 00                    2969 	.db #0x00	; 0
      0006F2 08                    2970 	.db #0x08	; 8
      0006F3 07                    2971 	.db #0x07	; 7
      0006F4 0B                    2972 	.db #0x0b	; 11
      0006F5 04                    2973 	.db #0x04	; 4
      0006F6 0B                    2974 	.db #0x0b	; 11
      0006F7 04                    2975 	.db #0x04	; 4
      0006F8 0B                    2976 	.db #0x0b	; 11
      0006F9 04                    2977 	.db #0x04	; 4
      0006FA 1F                    2978 	.db #0x1f	; 31
      0006FB 1E                    2979 	.db #0x1e	; 30
      0006FC 1F                    2980 	.db #0x1f	; 31
      0006FD 1E                    2981 	.db #0x1e	; 30
      0006FE 3F                    2982 	.db #0x3f	; 63
      0006FF 3E                    2983 	.db #0x3e	; 62
      000700 F0                    2984 	.db #0xf0	; 240
      000701 00                    2985 	.db #0x00	; 0
      000702 10                    2986 	.db #0x10	; 16
      000703 E0                    2987 	.db #0xe0	; 224
      000704 D0                    2988 	.db #0xd0	; 208
      000705 20                    2989 	.db #0x20	; 32
      000706 D0                    2990 	.db #0xd0	; 208
      000707 20                    2991 	.db #0x20	; 32
      000708 D0                    2992 	.db #0xd0	; 208
      000709 20                    2993 	.db #0x20	; 32
      00070A F8                    2994 	.db #0xf8	; 248
      00070B 78                    2995 	.db #0x78	; 120	'x'
      00070C F8                    2996 	.db #0xf8	; 248
      00070D 78                    2997 	.db #0x78	; 120	'x'
      00070E FC                    2998 	.db #0xfc	; 252
      00070F 7C                    2999 	.db #0x7c	; 124
      000710 07                    3000 	.db #0x07	; 7
      000711 8F                    3001 	.db #0x8f	; 143
      000712 00                    3002 	.db #0x00	; 0
      000713 FF                    3003 	.db #0xff	; 255
      000714 DD                    3004 	.db #0xdd	; 221
      000715 E3                    3005 	.db #0xe3	; 227
      000716 00                    3006 	.db #0x00	; 0
      000717 FF                    3007 	.db #0xff	; 255
      000718 77                    3008 	.db #0x77	; 119	'w'
      000719 8F                    3009 	.db #0x8f	; 143
      00071A 00                    3010 	.db #0x00	; 0
      00071B FF                    3011 	.db #0xff	; 255
      00071C C1                    3012 	.db #0xc1	; 193
      00071D E3                    3013 	.db #0xe3	; 227
      00071E 00                    3014 	.db #0x00	; 0
      00071F FF                    3015 	.db #0xff	; 255
      000720 00                    3016 	.db #0x00	; 0
      000721 00                    3017 	.db #0x00	; 0
      000722 00                    3018 	.db #0x00	; 0
      000723 00                    3019 	.db #0x00	; 0
      000724 00                    3020 	.db #0x00	; 0
      000725 00                    3021 	.db #0x00	; 0
      000726 00                    3022 	.db #0x00	; 0
      000727 00                    3023 	.db #0x00	; 0
      000728 00                    3024 	.db #0x00	; 0
      000729 00                    3025 	.db #0x00	; 0
      00072A 00                    3026 	.db #0x00	; 0
      00072B 00                    3027 	.db #0x00	; 0
      00072C 00                    3028 	.db #0x00	; 0
      00072D 18                    3029 	.db #0x18	; 24
      00072E 00                    3030 	.db #0x00	; 0
      00072F 3C                    3031 	.db #0x3c	; 60
      000730 00                    3032 	.db #0x00	; 0
      000731 7E                    3033 	.db #0x7e	; 126
      000732 0A                    3034 	.db #0x0a	; 10
      000733 A5                    3035 	.db #0xa5	; 165
      000734 04                    3036 	.db #0x04	; 4
      000735 DB                    3037 	.db #0xdb	; 219
      000736 24                    3038 	.db #0x24	; 36
      000737 DB                    3039 	.db #0xdb	; 219
      000738 1A                    3040 	.db #0x1a	; 26
      000739 A5                    3041 	.db #0xa5	; 165
      00073A 24                    3042 	.db #0x24	; 36
      00073B 5A                    3043 	.db #0x5a	; 90	'Z'
      00073C 18                    3044 	.db #0x18	; 24
      00073D 24                    3045 	.db #0x24	; 36
      00073E 00                    3046 	.db #0x00	; 0
      00073F 18                    3047 	.db #0x18	; 24
      000740 00                    3048 	.db #0x00	; 0
      000741 99                    3049 	.db #0x99	; 153
      000742 00                    3050 	.db #0x00	; 0
      000743 5A                    3051 	.db #0x5a	; 90	'Z'
      000744 00                    3052 	.db #0x00	; 0
      000745 3C                    3053 	.db #0x3c	; 60
      000746 00                    3054 	.db #0x00	; 0
      000747 18                    3055 	.db #0x18	; 24
      000748 00                    3056 	.db #0x00	; 0
      000749 18                    3057 	.db #0x18	; 24
      00074A 00                    3058 	.db #0x00	; 0
      00074B 18                    3059 	.db #0x18	; 24
      00074C 00                    3060 	.db #0x00	; 0
      00074D 18                    3061 	.db #0x18	; 24
      00074E 00                    3062 	.db #0x00	; 0
      00074F 18                    3063 	.db #0x18	; 24
      000750 00                    3064 	.db #0x00	; 0
      000751 18                    3065 	.db #0x18	; 24
      000752 00                    3066 	.db #0x00	; 0
      000753 18                    3067 	.db #0x18	; 24
      000754 00                    3068 	.db #0x00	; 0
      000755 18                    3069 	.db #0x18	; 24
      000756 00                    3070 	.db #0x00	; 0
      000757 18                    3071 	.db #0x18	; 24
      000758 00                    3072 	.db #0x00	; 0
      000759 18                    3073 	.db #0x18	; 24
      00075A 00                    3074 	.db #0x00	; 0
      00075B 3C                    3075 	.db #0x3c	; 60
      00075C 00                    3076 	.db #0x00	; 0
      00075D 7E                    3077 	.db #0x7e	; 126
      00075E 00                    3078 	.db #0x00	; 0
      00075F FF                    3079 	.db #0xff	; 255
      000760 00                    3080 	.db #0x00	; 0
      000761 00                    3081 	.db #0x00	; 0
      000762 00                    3082 	.db #0x00	; 0
      000763 00                    3083 	.db #0x00	; 0
      000764 00                    3084 	.db #0x00	; 0
      000765 00                    3085 	.db #0x00	; 0
      000766 00                    3086 	.db #0x00	; 0
      000767 00                    3087 	.db #0x00	; 0
      000768 00                    3088 	.db #0x00	; 0
      000769 00                    3089 	.db #0x00	; 0
      00076A 00                    3090 	.db #0x00	; 0
      00076B 00                    3091 	.db #0x00	; 0
      00076C 00                    3092 	.db #0x00	; 0
      00076D 00                    3093 	.db #0x00	; 0
      00076E 00                    3094 	.db #0x00	; 0
      00076F 04                    3095 	.db #0x04	; 4
      000770 00                    3096 	.db #0x00	; 0
      000771 0B                    3097 	.db #0x0b	; 11
      000772 00                    3098 	.db #0x00	; 0
      000773 18                    3099 	.db #0x18	; 24
      000774 08                    3100 	.db #0x08	; 8
      000775 66                    3101 	.db #0x66	; 102	'f'
      000776 18                    3102 	.db #0x18	; 24
      000777 A5                    3103 	.db #0xa5	; 165
      000778 5A                    3104 	.db #0x5a	; 90	'Z'
      000779 A5                    3105 	.db #0xa5	; 165
      00077A 00                    3106 	.db #0x00	; 0
      00077B 5A                    3107 	.db #0x5a	; 90	'Z'
      00077C 24                    3108 	.db #0x24	; 36
      00077D 5A                    3109 	.db #0x5a	; 90	'Z'
      00077E 00                    3110 	.db #0x00	; 0
      00077F 3C                    3111 	.db #0x3c	; 60
      000780 00                    3112 	.db #0x00	; 0
      000781 00                    3113 	.db #0x00	; 0
      000782 00                    3114 	.db #0x00	; 0
      000783 00                    3115 	.db #0x00	; 0
      000784 00                    3116 	.db #0x00	; 0
      000785 00                    3117 	.db #0x00	; 0
      000786 00                    3118 	.db #0x00	; 0
      000787 00                    3119 	.db #0x00	; 0
      000788 00                    3120 	.db #0x00	; 0
      000789 00                    3121 	.db #0x00	; 0
      00078A 00                    3122 	.db #0x00	; 0
      00078B 00                    3123 	.db #0x00	; 0
      00078C 00                    3124 	.db #0x00	; 0
      00078D 00                    3125 	.db #0x00	; 0
      00078E 00                    3126 	.db #0x00	; 0
      00078F 20                    3127 	.db #0x20	; 32
      000790 00                    3128 	.db #0x00	; 0
      000791 D0                    3129 	.db #0xd0	; 208
      000792 00                    3130 	.db #0x00	; 0
      000793 18                    3131 	.db #0x18	; 24
      000794 08                    3132 	.db #0x08	; 8
      000795 66                    3133 	.db #0x66	; 102	'f'
      000796 18                    3134 	.db #0x18	; 24
      000797 A5                    3135 	.db #0xa5	; 165
      000798 5A                    3136 	.db #0x5a	; 90	'Z'
      000799 A5                    3137 	.db #0xa5	; 165
      00079A 00                    3138 	.db #0x00	; 0
      00079B 5A                    3139 	.db #0x5a	; 90	'Z'
      00079C 24                    3140 	.db #0x24	; 36
      00079D 5A                    3141 	.db #0x5a	; 90	'Z'
      00079E 00                    3142 	.db #0x00	; 0
      00079F 3C                    3143 	.db #0x3c	; 60
      0007A0 00                    3144 	.db #0x00	; 0
      0007A1 18                    3145 	.db #0x18	; 24
      0007A2 00                    3146 	.db #0x00	; 0
      0007A3 00                    3147 	.db #0x00	; 0
      0007A4 00                    3148 	.db #0x00	; 0
      0007A5 00                    3149 	.db #0x00	; 0
      0007A6 00                    3150 	.db #0x00	; 0
      0007A7 00                    3151 	.db #0x00	; 0
      0007A8 00                    3152 	.db #0x00	; 0
      0007A9 00                    3153 	.db #0x00	; 0
      0007AA 00                    3154 	.db #0x00	; 0
      0007AB 00                    3155 	.db #0x00	; 0
      0007AC 00                    3156 	.db #0x00	; 0
      0007AD 00                    3157 	.db #0x00	; 0
      0007AE 00                    3158 	.db #0x00	; 0
      0007AF 00                    3159 	.db #0x00	; 0
      0007B0 FF                    3160 	.db #0xff	; 255
      0007B1 00                    3161 	.db #0x00	; 0
      0007B2 00                    3162 	.db #0x00	; 0
      0007B3 FF                    3163 	.db #0xff	; 255
      0007B4 FF                    3164 	.db #0xff	; 255
      0007B5 00                    3165 	.db #0x00	; 0
      0007B6 00                    3166 	.db #0x00	; 0
      0007B7 FF                    3167 	.db #0xff	; 255
      0007B8 FF                    3168 	.db #0xff	; 255
      0007B9 00                    3169 	.db #0x00	; 0
      0007BA 00                    3170 	.db #0x00	; 0
      0007BB FF                    3171 	.db #0xff	; 255
      0007BC FF                    3172 	.db #0xff	; 255
      0007BD 00                    3173 	.db #0x00	; 0
      0007BE 00                    3174 	.db #0x00	; 0
      0007BF FF                    3175 	.db #0xff	; 255
      0007C0 00                    3176 	.db #0x00	; 0
      0007C1 00                    3177 	.db #0x00	; 0
      0007C2 00                    3178 	.db #0x00	; 0
      0007C3 01                    3179 	.db #0x01	; 1
      0007C4 0F                    3180 	.db #0x0f	; 15
      0007C5 00                    3181 	.db #0x00	; 0
      0007C6 00                    3182 	.db #0x00	; 0
      0007C7 1F                    3183 	.db #0x1f	; 31
      0007C8 7F                    3184 	.db #0x7f	; 127
      0007C9 00                    3185 	.db #0x00	; 0
      0007CA 00                    3186 	.db #0x00	; 0
      0007CB FF                    3187 	.db #0xff	; 255
      0007CC FF                    3188 	.db #0xff	; 255
      0007CD 00                    3189 	.db #0x00	; 0
      0007CE 00                    3190 	.db #0x00	; 0
      0007CF FF                    3191 	.db #0xff	; 255
      0007D0 00                    3192 	.db #0x00	; 0
      0007D1 00                    3193 	.db #0x00	; 0
      0007D2 00                    3194 	.db #0x00	; 0
      0007D3 00                    3195 	.db #0x00	; 0
      0007D4 00                    3196 	.db #0x00	; 0
      0007D5 00                    3197 	.db #0x00	; 0
      0007D6 00                    3198 	.db #0x00	; 0
      0007D7 00                    3199 	.db #0x00	; 0
      0007D8 00                    3200 	.db #0x00	; 0
      0007D9 00                    3201 	.db #0x00	; 0
      0007DA 00                    3202 	.db #0x00	; 0
      0007DB 00                    3203 	.db #0x00	; 0
      0007DC 07                    3204 	.db #0x07	; 7
      0007DD 00                    3205 	.db #0x00	; 0
      0007DE 00                    3206 	.db #0x00	; 0
      0007DF 0F                    3207 	.db #0x0f	; 15
      0007E0 00                    3208 	.db #0x00	; 0
      0007E1 00                    3209 	.db #0x00	; 0
      0007E2 00                    3210 	.db #0x00	; 0
      0007E3 80                    3211 	.db #0x80	; 128
      0007E4 F0                    3212 	.db #0xf0	; 240
      0007E5 00                    3213 	.db #0x00	; 0
      0007E6 00                    3214 	.db #0x00	; 0
      0007E7 F8                    3215 	.db #0xf8	; 248
      0007E8 FE                    3216 	.db #0xfe	; 254
      0007E9 00                    3217 	.db #0x00	; 0
      0007EA 00                    3218 	.db #0x00	; 0
      0007EB FF                    3219 	.db #0xff	; 255
      0007EC FF                    3220 	.db #0xff	; 255
      0007ED 00                    3221 	.db #0x00	; 0
      0007EE 00                    3222 	.db #0x00	; 0
      0007EF FF                    3223 	.db #0xff	; 255
      0007F0 00                    3224 	.db #0x00	; 0
      0007F1 00                    3225 	.db #0x00	; 0
      0007F2 00                    3226 	.db #0x00	; 0
      0007F3 00                    3227 	.db #0x00	; 0
      0007F4 00                    3228 	.db #0x00	; 0
      0007F5 00                    3229 	.db #0x00	; 0
      0007F6 00                    3230 	.db #0x00	; 0
      0007F7 00                    3231 	.db #0x00	; 0
      0007F8 00                    3232 	.db #0x00	; 0
      0007F9 00                    3233 	.db #0x00	; 0
      0007FA 00                    3234 	.db #0x00	; 0
      0007FB 00                    3235 	.db #0x00	; 0
      0007FC E0                    3236 	.db #0xe0	; 224
      0007FD 00                    3237 	.db #0x00	; 0
      0007FE 00                    3238 	.db #0x00	; 0
      0007FF F0                    3239 	.db #0xf0	; 240
      000800 00                    3240 	.db #0x00	; 0
      000801 06                    3241 	.db #0x06	; 6
      000802 00                    3242 	.db #0x00	; 0
      000803 03                    3243 	.db #0x03	; 3
      000804 00                    3244 	.db #0x00	; 0
      000805 01                    3245 	.db #0x01	; 1
      000806 00                    3246 	.db #0x00	; 0
      000807 01                    3247 	.db #0x01	; 1
      000808 00                    3248 	.db #0x00	; 0
      000809 01                    3249 	.db #0x01	; 1
      00080A 00                    3250 	.db #0x00	; 0
      00080B 01                    3251 	.db #0x01	; 1
      00080C 00                    3252 	.db #0x00	; 0
      00080D 01                    3253 	.db #0x01	; 1
      00080E 00                    3254 	.db #0x00	; 0
      00080F 01                    3255 	.db #0x01	; 1
      000810 00                    3256 	.db #0x00	; 0
      000811 01                    3257 	.db #0x01	; 1
      000812 00                    3258 	.db #0x00	; 0
      000813 01                    3259 	.db #0x01	; 1
      000814 00                    3260 	.db #0x00	; 0
      000815 01                    3261 	.db #0x01	; 1
      000816 00                    3262 	.db #0x00	; 0
      000817 01                    3263 	.db #0x01	; 1
      000818 00                    3264 	.db #0x00	; 0
      000819 01                    3265 	.db #0x01	; 1
      00081A 00                    3266 	.db #0x00	; 0
      00081B 01                    3267 	.db #0x01	; 1
      00081C 00                    3268 	.db #0x00	; 0
      00081D 01                    3269 	.db #0x01	; 1
      00081E 00                    3270 	.db #0x00	; 0
      00081F 01                    3271 	.db #0x01	; 1
      000820 00                    3272 	.db #0x00	; 0
      000821 80                    3273 	.db #0x80	; 128
      000822 00                    3274 	.db #0x00	; 0
      000823 80                    3275 	.db #0x80	; 128
      000824 00                    3276 	.db #0x00	; 0
      000825 00                    3277 	.db #0x00	; 0
      000826 00                    3278 	.db #0x00	; 0
      000827 00                    3279 	.db #0x00	; 0
      000828 00                    3280 	.db #0x00	; 0
      000829 00                    3281 	.db #0x00	; 0
      00082A 00                    3282 	.db #0x00	; 0
      00082B 00                    3283 	.db #0x00	; 0
      00082C 00                    3284 	.db #0x00	; 0
      00082D 00                    3285 	.db #0x00	; 0
      00082E 00                    3286 	.db #0x00	; 0
      00082F 00                    3287 	.db #0x00	; 0
      000830 00                    3288 	.db #0x00	; 0
      000831 83                    3289 	.db #0x83	; 131
      000832 7D                    3290 	.db #0x7d	; 125
      000833 00                    3291 	.db #0x00	; 0
      000834 01                    3292 	.db #0x01	; 1
      000835 82                    3293 	.db #0x82	; 130
      000836 01                    3294 	.db #0x01	; 1
      000837 44                    3295 	.db #0x44	; 68	'D'
      000838 01                    3296 	.db #0x01	; 1
      000839 44                    3297 	.db #0x44	; 68	'D'
      00083A 01                    3298 	.db #0x01	; 1
      00083B 44                    3299 	.db #0x44	; 68	'D'
      00083C 01                    3300 	.db #0x01	; 1
      00083D 82                    3301 	.db #0x82	; 130
      00083E 01                    3302 	.db #0x01	; 1
      00083F 00                    3303 	.db #0x00	; 0
      000840 00                    3304 	.db #0x00	; 0
      000841 C3                    3305 	.db #0xc3	; 195
      000842 BD                    3306 	.db #0xbd	; 189
      000843 00                    3307 	.db #0x00	; 0
      000844 81                    3308 	.db #0x81	; 129
      000845 42                    3309 	.db #0x42	; 66	'B'
      000846 81                    3310 	.db #0x81	; 129
      000847 24                    3311 	.db #0x24	; 36
      000848 81                    3312 	.db #0x81	; 129
      000849 24                    3313 	.db #0x24	; 36
      00084A 81                    3314 	.db #0x81	; 129
      00084B 24                    3315 	.db #0x24	; 36
      00084C 81                    3316 	.db #0x81	; 129
      00084D 42                    3317 	.db #0x42	; 66	'B'
      00084E 81                    3318 	.db #0x81	; 129
      00084F 00                    3319 	.db #0x00	; 0
      000850 00                    3320 	.db #0x00	; 0
      000851 00                    3321 	.db #0x00	; 0
      000852 00                    3322 	.db #0x00	; 0
      000853 00                    3323 	.db #0x00	; 0
      000854 02                    3324 	.db #0x02	; 2
      000855 01                    3325 	.db #0x01	; 1
      000856 02                    3326 	.db #0x02	; 2
      000857 01                    3327 	.db #0x01	; 1
      000858 09                    3328 	.db #0x09	; 9
      000859 07                    3329 	.db #0x07	; 7
      00085A 0B                    3330 	.db #0x0b	; 11
      00085B 07                    3331 	.db #0x07	; 7
      00085C 27                    3332 	.db #0x27	; 39
      00085D 1F                    3333 	.db #0x1f	; 31
      00085E 2F                    3334 	.db #0x2f	; 47
      00085F 1F                    3335 	.db #0x1f	; 31
      000860 00                    3336 	.db #0x00	; 0
      000861 00                    3337 	.db #0x00	; 0
      000862 00                    3338 	.db #0x00	; 0
      000863 00                    3339 	.db #0x00	; 0
      000864 00                    3340 	.db #0x00	; 0
      000865 00                    3341 	.db #0x00	; 0
      000866 00                    3342 	.db #0x00	; 0
      000867 00                    3343 	.db #0x00	; 0
      000868 00                    3344 	.db #0x00	; 0
      000869 00                    3345 	.db #0x00	; 0
      00086A 00                    3346 	.db #0x00	; 0
      00086B 10                    3347 	.db #0x10	; 16
      00086C 00                    3348 	.db #0x00	; 0
      00086D 30                    3349 	.db #0x30	; 48	'0'
      00086E 00                    3350 	.db #0x00	; 0
      00086F 78                    3351 	.db #0x78	; 120	'x'
      000870 00                    3352 	.db #0x00	; 0
      000871 38                    3353 	.db #0x38	; 56	'8'
      000872 00                    3354 	.db #0x00	; 0
      000873 19                    3355 	.db #0x19	; 25
      000874 00                    3356 	.db #0x00	; 0
      000875 3A                    3357 	.db #0x3a	; 58
      000876 00                    3358 	.db #0x00	; 0
      000877 3C                    3359 	.db #0x3c	; 60
      000878 00                    3360 	.db #0x00	; 0
      000879 38                    3361 	.db #0x38	; 56	'8'
      00087A 00                    3362 	.db #0x00	; 0
      00087B 38                    3363 	.db #0x38	; 56	'8'
      00087C 00                    3364 	.db #0x00	; 0
      00087D 18                    3365 	.db #0x18	; 24
      00087E 00                    3366 	.db #0x00	; 0
      00087F 3C                    3367 	.db #0x3c	; 60
      000880 00                    3368 	.db #0x00	; 0
      000881 44                    3369 	.db #0x44	; 68	'D'
      000882 00                    3370 	.db #0x00	; 0
      000883 08                    3371 	.db #0x08	; 8
      000884 00                    3372 	.db #0x00	; 0
      000885 7E                    3373 	.db #0x7e	; 126
      000886 00                    3374 	.db #0x00	; 0
      000887 3C                    3375 	.db #0x3c	; 60
      000888 00                    3376 	.db #0x00	; 0
      000889 18                    3377 	.db #0x18	; 24
      00088A 00                    3378 	.db #0x00	; 0
      00088B 18                    3379 	.db #0x18	; 24
      00088C 00                    3380 	.db #0x00	; 0
      00088D 18                    3381 	.db #0x18	; 24
      00088E 00                    3382 	.db #0x00	; 0
      00088F 18                    3383 	.db #0x18	; 24
      000890 00                    3384 	.db #0x00	; 0
      000891 18                    3385 	.db #0x18	; 24
      000892 00                    3386 	.db #0x00	; 0
      000893 18                    3387 	.db #0x18	; 24
      000894 00                    3388 	.db #0x00	; 0
      000895 18                    3389 	.db #0x18	; 24
      000896 FF                    3390 	.db #0xff	; 255
      000897 00                    3391 	.db #0x00	; 0
      000898 7E                    3392 	.db #0x7e	; 126
      000899 00                    3393 	.db #0x00	; 0
      00089A 00                    3394 	.db #0x00	; 0
      00089B 18                    3395 	.db #0x18	; 24
      00089C 00                    3396 	.db #0x00	; 0
      00089D 18                    3397 	.db #0x18	; 24
      00089E 00                    3398 	.db #0x00	; 0
      00089F 18                    3399 	.db #0x18	; 24
      0008A0 00                    3400 	.db #0x00	; 0
      0008A1 18                    3401 	.db #0x18	; 24
      0008A2 00                    3402 	.db #0x00	; 0
      0008A3 18                    3403 	.db #0x18	; 24
      0008A4 00                    3404 	.db #0x00	; 0
      0008A5 18                    3405 	.db #0x18	; 24
      0008A6 00                    3406 	.db #0x00	; 0
      0008A7 18                    3407 	.db #0x18	; 24
      0008A8 00                    3408 	.db #0x00	; 0
      0008A9 18                    3409 	.db #0x18	; 24
      0008AA 00                    3410 	.db #0x00	; 0
      0008AB 18                    3411 	.db #0x18	; 24
      0008AC 3C                    3412 	.db #0x3c	; 60
      0008AD 00                    3413 	.db #0x00	; 0
      0008AE 7E                    3414 	.db #0x7e	; 126
      0008AF 00                    3415 	.db #0x00	; 0
      0008B0 00                    3416 	.db #0x00	; 0
      0008B1 00                    3417 	.db #0x00	; 0
      0008B2 00                    3418 	.db #0x00	; 0
      0008B3 00                    3419 	.db #0x00	; 0
      0008B4 00                    3420 	.db #0x00	; 0
      0008B5 00                    3421 	.db #0x00	; 0
      0008B6 00                    3422 	.db #0x00	; 0
      0008B7 00                    3423 	.db #0x00	; 0
      0008B8 00                    3424 	.db #0x00	; 0
      0008B9 00                    3425 	.db #0x00	; 0
      0008BA 00                    3426 	.db #0x00	; 0
      0008BB 00                    3427 	.db #0x00	; 0
      0008BC 00                    3428 	.db #0x00	; 0
      0008BD 81                    3429 	.db #0x81	; 129
      0008BE 00                    3430 	.db #0x00	; 0
      0008BF C3                    3431 	.db #0xc3	; 195
      0008C0 FF                    3432 	.db #0xff	; 255
      0008C1 00                    3433 	.db #0x00	; 0
      0008C2 00                    3434 	.db #0x00	; 0
      0008C3 FF                    3435 	.db #0xff	; 255
      0008C4 CA                    3436 	.db #0xca	; 202
      0008C5 E7                    3437 	.db #0xe7	; 231
      0008C6 DA                    3438 	.db #0xda	; 218
      0008C7 A5                    3439 	.db #0xa5	; 165
      0008C8 C2                    3440 	.db #0xc2	; 194
      0008C9 BD                    3441 	.db #0xbd	; 189
      0008CA FE                    3442 	.db #0xfe	; 254
      0008CB C3                    3443 	.db #0xc3	; 195
      0008CC FE                    3444 	.db #0xfe	; 254
      0008CD FF                    3445 	.db #0xff	; 255
      0008CE FE                    3446 	.db #0xfe	; 254
      0008CF FF                    3447 	.db #0xff	; 255
      0008D0 FF                    3448 	.db #0xff	; 255
      0008D1 00                    3449 	.db #0x00	; 0
      0008D2 00                    3450 	.db #0x00	; 0
      0008D3 FE                    3451 	.db #0xfe	; 254
      0008D4 FE                    3452 	.db #0xfe	; 254
      0008D5 FE                    3453 	.db #0xfe	; 254
      0008D6 FC                    3454 	.db #0xfc	; 252
      0008D7 FC                    3455 	.db #0xfc	; 252
      0008D8 F8                    3456 	.db #0xf8	; 248
      0008D9 F8                    3457 	.db #0xf8	; 248
      0008DA E0                    3458 	.db #0xe0	; 224
      0008DB E0                    3459 	.db #0xe0	; 224
      0008DC C0                    3460 	.db #0xc0	; 192
      0008DD C0                    3461 	.db #0xc0	; 192
      0008DE 80                    3462 	.db #0x80	; 128
      0008DF 80                    3463 	.db #0x80	; 128
      0008E0 FF                    3464 	.db #0xff	; 255
      0008E1 00                    3465 	.db #0x00	; 0
      0008E2 00                    3466 	.db #0x00	; 0
      0008E3 7F                    3467 	.db #0x7f	; 127
      0008E4 7F                    3468 	.db #0x7f	; 127
      0008E5 7F                    3469 	.db #0x7f	; 127
      0008E6 3F                    3470 	.db #0x3f	; 63
      0008E7 3F                    3471 	.db #0x3f	; 63
      0008E8 1F                    3472 	.db #0x1f	; 31
      0008E9 1F                    3473 	.db #0x1f	; 31
      0008EA 07                    3474 	.db #0x07	; 7
      0008EB 07                    3475 	.db #0x07	; 7
      0008EC 03                    3476 	.db #0x03	; 3
      0008ED 03                    3477 	.db #0x03	; 3
      0008EE 01                    3478 	.db #0x01	; 1
      0008EF 01                    3479 	.db #0x01	; 1
      0008F0 00                    3480 	.db #0x00	; 0
      0008F1 00                    3481 	.db #0x00	; 0
      0008F2 00                    3482 	.db #0x00	; 0
      0008F3 00                    3483 	.db #0x00	; 0
      0008F4 00                    3484 	.db #0x00	; 0
      0008F5 00                    3485 	.db #0x00	; 0
      0008F6 00                    3486 	.db #0x00	; 0
      0008F7 00                    3487 	.db #0x00	; 0
      0008F8 00                    3488 	.db #0x00	; 0
      0008F9 00                    3489 	.db #0x00	; 0
      0008FA 80                    3490 	.db #0x80	; 128
      0008FB 00                    3491 	.db #0x00	; 0
      0008FC C0                    3492 	.db #0xc0	; 192
      0008FD 00                    3493 	.db #0x00	; 0
      0008FE E0                    3494 	.db #0xe0	; 224
      0008FF 00                    3495 	.db #0x00	; 0
      000900 00                    3496 	.db #0x00	; 0
      000901 00                    3497 	.db #0x00	; 0
      000902 00                    3498 	.db #0x00	; 0
      000903 00                    3499 	.db #0x00	; 0
      000904 00                    3500 	.db #0x00	; 0
      000905 00                    3501 	.db #0x00	; 0
      000906 00                    3502 	.db #0x00	; 0
      000907 00                    3503 	.db #0x00	; 0
      000908 00                    3504 	.db #0x00	; 0
      000909 00                    3505 	.db #0x00	; 0
      00090A 01                    3506 	.db #0x01	; 1
      00090B 02                    3507 	.db #0x02	; 2
      00090C 01                    3508 	.db #0x01	; 1
      00090D 06                    3509 	.db #0x06	; 6
      00090E 01                    3510 	.db #0x01	; 1
      00090F 0E                    3511 	.db #0x0e	; 14
      000910 03                    3512 	.db #0x03	; 3
      000911 04                    3513 	.db #0x04	; 4
      000912 03                    3514 	.db #0x03	; 3
      000913 7C                    3515 	.db #0x7c	; 124
      000914 00                    3516 	.db #0x00	; 0
      000915 7F                    3517 	.db #0x7f	; 127
      000916 33                    3518 	.db #0x33	; 51	'3'
      000917 4C                    3519 	.db #0x4c	; 76	'L'
      000918 F3                    3520 	.db #0xf3	; 243
      000919 0C                    3521 	.db #0x0c	; 12
      00091A E7                    3522 	.db #0xe7	; 231
      00091B 18                    3523 	.db #0x18	; 24
      00091C 00                    3524 	.db #0x00	; 0
      00091D FF                    3525 	.db #0xff	; 255
      00091E 00                    3526 	.db #0x00	; 0
      00091F 00                    3527 	.db #0x00	; 0
      000920 00                    3528 	.db #0x00	; 0
      000921 00                    3529 	.db #0x00	; 0
      000922 00                    3530 	.db #0x00	; 0
      000923 00                    3531 	.db #0x00	; 0
      000924 00                    3532 	.db #0x00	; 0
      000925 00                    3533 	.db #0x00	; 0
      000926 01                    3534 	.db #0x01	; 1
      000927 02                    3535 	.db #0x02	; 2
      000928 01                    3536 	.db #0x01	; 1
      000929 06                    3537 	.db #0x06	; 6
      00092A 00                    3538 	.db #0x00	; 0
      00092B 0F                    3539 	.db #0x0f	; 15
      00092C 00                    3540 	.db #0x00	; 0
      00092D 3F                    3541 	.db #0x3f	; 63
      00092E 00                    3542 	.db #0x00	; 0
      00092F 00                    3543 	.db #0x00	; 0
      000930 EE                    3544 	.db #0xee	; 238
      000931 00                    3545 	.db #0x00	; 0
      000932 EE                    3546 	.db #0xee	; 238
      000933 00                    3547 	.db #0x00	; 0
      000934 F3                    3548 	.db #0xf3	; 243
      000935 0C                    3549 	.db #0x0c	; 12
      000936 F3                    3550 	.db #0xf3	; 243
      000937 0C                    3551 	.db #0x0c	; 12
      000938 E7                    3552 	.db #0xe7	; 231
      000939 18                    3553 	.db #0x18	; 24
      00093A E7                    3554 	.db #0xe7	; 231
      00093B 18                    3555 	.db #0x18	; 24
      00093C 00                    3556 	.db #0x00	; 0
      00093D FF                    3557 	.db #0xff	; 255
      00093E 00                    3558 	.db #0x00	; 0
      00093F 00                    3559 	.db #0x00	; 0
      000940 00                    3560 	.db #0x00	; 0
      000941 00                    3561 	.db #0x00	; 0
      000942 00                    3562 	.db #0x00	; 0
      000943 00                    3563 	.db #0x00	; 0
      000944 80                    3564 	.db #0x80	; 128
      000945 00                    3565 	.db #0x00	; 0
      000946 80                    3566 	.db #0x80	; 128
      000947 00                    3567 	.db #0x00	; 0
      000948 C0                    3568 	.db #0xc0	; 192
      000949 00                    3569 	.db #0x00	; 0
      00094A F0                    3570 	.db #0xf0	; 240
      00094B 00                    3571 	.db #0x00	; 0
      00094C 00                    3572 	.db #0x00	; 0
      00094D FC                    3573 	.db #0xfc	; 252
      00094E 00                    3574 	.db #0x00	; 0
      00094F 00                    3575 	.db #0x00	; 0
      000950 00                    3576 	.db #0x00	; 0
      000951 FF                    3577 	.db #0xff	; 255
      000952 1C                    3578 	.db #0x1c	; 28
      000953 22                    3579 	.db #0x22	; 34
      000954 00                    3580 	.db #0x00	; 0
      000955 FF                    3581 	.db #0xff	; 255
      000956 70                    3582 	.db #0x70	; 112	'p'
      000957 88                    3583 	.db #0x88	; 136
      000958 00                    3584 	.db #0x00	; 0
      000959 FF                    3585 	.db #0xff	; 255
      00095A FF                    3586 	.db #0xff	; 255
      00095B FF                    3587 	.db #0xff	; 255
      00095C FF                    3588 	.db #0xff	; 255
      00095D FF                    3589 	.db #0xff	; 255
      00095E FF                    3590 	.db #0xff	; 255
      00095F FF                    3591 	.db #0xff	; 255
      000960 00                    3592 	.db #0x00	; 0
      000961 88                    3593 	.db #0x88	; 136
      000962 00                    3594 	.db #0x00	; 0
      000963 FF                    3595 	.db #0xff	; 255
      000964 1C                    3596 	.db #0x1c	; 28
      000965 22                    3597 	.db #0x22	; 34
      000966 00                    3598 	.db #0x00	; 0
      000967 FF                    3599 	.db #0xff	; 255
      000968 3F                    3600 	.db #0x3f	; 63
      000969 BF                    3601 	.db #0xbf	; 191
      00096A 40                    3602 	.db #0x40	; 64
      00096B C0                    3603 	.db #0xc0	; 192
      00096C 80                    3604 	.db #0x80	; 128
      00096D 94                    3605 	.db #0x94	; 148
      00096E 80                    3606 	.db #0x80	; 128
      00096F 96                    3607 	.db #0x96	; 150
      000970 80                    3608 	.db #0x80	; 128
      000971 95                    3609 	.db #0x95	; 149
      000972 80                    3610 	.db #0x80	; 128
      000973 94                    3611 	.db #0x94	; 148
      000974 40                    3612 	.db #0x40	; 64
      000975 40                    3613 	.db #0x40	; 64
      000976 3F                    3614 	.db #0x3f	; 63
      000977 BF                    3615 	.db #0xbf	; 191
      000978 00                    3616 	.db #0x00	; 0
      000979 FF                    3617 	.db #0xff	; 255
      00097A 1C                    3618 	.db #0x1c	; 28
      00097B 22                    3619 	.db #0x22	; 34
      00097C 00                    3620 	.db #0x00	; 0
      00097D FF                    3621 	.db #0xff	; 255
      00097E 00                    3622 	.db #0x00	; 0
      00097F 88                    3623 	.db #0x88	; 136
      000980 70                    3624 	.db #0x70	; 112	'p'
      000981 88                    3625 	.db #0x88	; 136
      000982 00                    3626 	.db #0x00	; 0
      000983 FF                    3627 	.db #0xff	; 255
      000984 1C                    3628 	.db #0x1c	; 28
      000985 22                    3629 	.db #0x22	; 34
      000986 00                    3630 	.db #0x00	; 0
      000987 FF                    3631 	.db #0xff	; 255
      000988 FC                    3632 	.db #0xfc	; 252
      000989 FC                    3633 	.db #0xfc	; 252
      00098A 02                    3634 	.db #0x02	; 2
      00098B 03                    3635 	.db #0x03	; 3
      00098C 01                    3636 	.db #0x01	; 1
      00098D A5                    3637 	.db #0xa5	; 165
      00098E 01                    3638 	.db #0x01	; 1
      00098F B5                    3639 	.db #0xb5	; 181
      000990 01                    3640 	.db #0x01	; 1
      000991 AD                    3641 	.db #0xad	; 173
      000992 01                    3642 	.db #0x01	; 1
      000993 A5                    3643 	.db #0xa5	; 165
      000994 02                    3644 	.db #0x02	; 2
      000995 03                    3645 	.db #0x03	; 3
      000996 FC                    3646 	.db #0xfc	; 252
      000997 FC                    3647 	.db #0xfc	; 252
      000998 00                    3648 	.db #0x00	; 0
      000999 FF                    3649 	.db #0xff	; 255
      00099A 00                    3650 	.db #0x00	; 0
      00099B 22                    3651 	.db #0x22	; 34
      00099C 00                    3652 	.db #0x00	; 0
      00099D FF                    3653 	.db #0xff	; 255
      00099E 07                    3654 	.db #0x07	; 7
      00099F 88                    3655 	.db #0x88	; 136
      0009A0 FF                    3656 	.db #0xff	; 255
      0009A1 FF                    3657 	.db #0xff	; 255
      0009A2 FF                    3658 	.db #0xff	; 255
      0009A3 FF                    3659 	.db #0xff	; 255
      0009A4 FF                    3660 	.db #0xff	; 255
      0009A5 FF                    3661 	.db #0xff	; 255
      0009A6 FF                    3662 	.db #0xff	; 255
      0009A7 FF                    3663 	.db #0xff	; 255
      0009A8 FF                    3664 	.db #0xff	; 255
      0009A9 FF                    3665 	.db #0xff	; 255
      0009AA FF                    3666 	.db #0xff	; 255
      0009AB FF                    3667 	.db #0xff	; 255
      0009AC FF                    3668 	.db #0xff	; 255
      0009AD FF                    3669 	.db #0xff	; 255
      0009AE FF                    3670 	.db #0xff	; 255
      0009AF FF                    3671 	.db #0xff	; 255
      0009B0                       3672 __xinit__town_001_map:
      0009B0 00                    3673 	.db #0x00	; 0
      0009B1 00                    3674 	.db #0x00	; 0
      0009B2 00                    3675 	.db #0x00	; 0
      0009B3 00                    3676 	.db #0x00	; 0
      0009B4 00                    3677 	.db #0x00	; 0
      0009B5 00                    3678 	.db #0x00	; 0
      0009B6 00                    3679 	.db #0x00	; 0
      0009B7 00                    3680 	.db #0x00	; 0
      0009B8 00                    3681 	.db #0x00	; 0
      0009B9 00                    3682 	.db #0x00	; 0
      0009BA 40                    3683 	.db #0x40	; 64
      0009BB 3F                    3684 	.db #0x3f	; 63
      0009BC 00                    3685 	.db #0x00	; 0
      0009BD 00                    3686 	.db #0x00	; 0
      0009BE 00                    3687 	.db #0x00	; 0
      0009BF 00                    3688 	.db #0x00	; 0
      0009C0 00                    3689 	.db #0x00	; 0
      0009C1 00                    3690 	.db #0x00	; 0
      0009C2 00                    3691 	.db #0x00	; 0
      0009C3 00                    3692 	.db #0x00	; 0
      0009C4 00                    3693 	.db #0x00	; 0
      0009C5 00                    3694 	.db #0x00	; 0
      0009C6 00                    3695 	.db #0x00	; 0
      0009C7 00                    3696 	.db #0x00	; 0
      0009C8 00                    3697 	.db #0x00	; 0
      0009C9 00                    3698 	.db #0x00	; 0
      0009CA 00                    3699 	.db #0x00	; 0
      0009CB 40                    3700 	.db #0x40	; 64
      0009CC 3F                    3701 	.db #0x3f	; 63
      0009CD 00                    3702 	.db #0x00	; 0
      0009CE 00                    3703 	.db #0x00	; 0
      0009CF 00                    3704 	.db #0x00	; 0
      0009D0 00                    3705 	.db #0x00	; 0
      0009D1 00                    3706 	.db #0x00	; 0
      0009D2 00                    3707 	.db #0x00	; 0
      0009D3 00                    3708 	.db #0x00	; 0
      0009D4 00                    3709 	.db #0x00	; 0
      0009D5 00                    3710 	.db #0x00	; 0
      0009D6 00                    3711 	.db #0x00	; 0
      0009D7 00                    3712 	.db #0x00	; 0
      0009D8 42                    3713 	.db #0x42	; 66	'B'
      0009D9 43                    3714 	.db #0x43	; 67	'C'
      0009DA 41                    3715 	.db #0x41	; 65	'A'
      0009DB 43                    3716 	.db #0x43	; 67	'C'
      0009DC 44                    3717 	.db #0x44	; 68	'D'
      0009DD 00                    3718 	.db #0x00	; 0
      0009DE 00                    3719 	.db #0x00	; 0
      0009DF 00                    3720 	.db #0x00	; 0
      0009E0 00                    3721 	.db #0x00	; 0
      0009E1 00                    3722 	.db #0x00	; 0
      0009E2 00                    3723 	.db #0x00	; 0
      0009E3 00                    3724 	.db #0x00	; 0
      0009E4 00                    3725 	.db #0x00	; 0
      0009E5 00                    3726 	.db #0x00	; 0
      0009E6 00                    3727 	.db #0x00	; 0
      0009E7 00                    3728 	.db #0x00	; 0
      0009E8 00                    3729 	.db #0x00	; 0
      0009E9 42                    3730 	.db #0x42	; 66	'B'
      0009EA 43                    3731 	.db #0x43	; 67	'C'
      0009EB 41                    3732 	.db #0x41	; 65	'A'
      0009EC 43                    3733 	.db #0x43	; 67	'C'
      0009ED 44                    3734 	.db #0x44	; 68	'D'
      0009EE 00                    3735 	.db #0x00	; 0
      0009EF 00                    3736 	.db #0x00	; 0
      0009F0 00                    3737 	.db #0x00	; 0
      0009F1 00                    3738 	.db #0x00	; 0
      0009F2 00                    3739 	.db #0x00	; 0
      0009F3 01                    3740 	.db #0x01	; 1
      0009F4 01                    3741 	.db #0x01	; 1
      0009F5 01                    3742 	.db #0x01	; 1
      0009F6 01                    3743 	.db #0x01	; 1
      0009F7 01                    3744 	.db #0x01	; 1
      0009F8 01                    3745 	.db #0x01	; 1
      0009F9 01                    3746 	.db #0x01	; 1
      0009FA 01                    3747 	.db #0x01	; 1
      0009FB 01                    3748 	.db #0x01	; 1
      0009FC 01                    3749 	.db #0x01	; 1
      0009FD 01                    3750 	.db #0x01	; 1
      0009FE 01                    3751 	.db #0x01	; 1
      0009FF 00                    3752 	.db #0x00	; 0
      000A00 00                    3753 	.db #0x00	; 0
      000A01 00                    3754 	.db #0x00	; 0
      000A02 00                    3755 	.db #0x00	; 0
      000A03 00                    3756 	.db #0x00	; 0
      000A04 00                    3757 	.db #0x00	; 0
      000A05 00                    3758 	.db #0x00	; 0
      000A06 40                    3759 	.db #0x40	; 64
      000A07 3F                    3760 	.db #0x3f	; 63
      000A08 00                    3761 	.db #0x00	; 0
      000A09 00                    3762 	.db #0x00	; 0
      000A0A 00                    3763 	.db #0x00	; 0
      000A0B 00                    3764 	.db #0x00	; 0
      000A0C 00                    3765 	.db #0x00	; 0
      000A0D 00                    3766 	.db #0x00	; 0
      000A0E 00                    3767 	.db #0x00	; 0
      000A0F 00                    3768 	.db #0x00	; 0
      000A10 00                    3769 	.db #0x00	; 0
      000A11 00                    3770 	.db #0x00	; 0
      000A12 01                    3771 	.db #0x01	; 1
      000A13 01                    3772 	.db #0x01	; 1
      000A14 01                    3773 	.db #0x01	; 1
      000A15 01                    3774 	.db #0x01	; 1
      000A16 01                    3775 	.db #0x01	; 1
      000A17 01                    3776 	.db #0x01	; 1
      000A18 01                    3777 	.db #0x01	; 1
      000A19 01                    3778 	.db #0x01	; 1
      000A1A 01                    3779 	.db #0x01	; 1
      000A1B 01                    3780 	.db #0x01	; 1
      000A1C 01                    3781 	.db #0x01	; 1
      000A1D 01                    3782 	.db #0x01	; 1
      000A1E 01                    3783 	.db #0x01	; 1
      000A1F 01                    3784 	.db #0x01	; 1
      000A20 00                    3785 	.db #0x00	; 0
      000A21 00                    3786 	.db #0x00	; 0
      000A22 00                    3787 	.db #0x00	; 0
      000A23 00                    3788 	.db #0x00	; 0
      000A24 42                    3789 	.db #0x42	; 66	'B'
      000A25 43                    3790 	.db #0x43	; 67	'C'
      000A26 41                    3791 	.db #0x41	; 65	'A'
      000A27 43                    3792 	.db #0x43	; 67	'C'
      000A28 44                    3793 	.db #0x44	; 68	'D'
      000A29 00                    3794 	.db #0x00	; 0
      000A2A 00                    3795 	.db #0x00	; 0
      000A2B 00                    3796 	.db #0x00	; 0
      000A2C 00                    3797 	.db #0x00	; 0
      000A2D 00                    3798 	.db #0x00	; 0
      000A2E 00                    3799 	.db #0x00	; 0
      000A2F 40                    3800 	.db #0x40	; 64
      000A30 00                    3801 	.db #0x00	; 0
      000A31 01                    3802 	.db #0x01	; 1
      000A32 01                    3803 	.db #0x01	; 1
      000A33 01                    3804 	.db #0x01	; 1
      000A34 01                    3805 	.db #0x01	; 1
      000A35 01                    3806 	.db #0x01	; 1
      000A36 01                    3807 	.db #0x01	; 1
      000A37 01                    3808 	.db #0x01	; 1
      000A38 01                    3809 	.db #0x01	; 1
      000A39 01                    3810 	.db #0x01	; 1
      000A3A 01                    3811 	.db #0x01	; 1
      000A3B 01                    3812 	.db #0x01	; 1
      000A3C 01                    3813 	.db #0x01	; 1
      000A3D 01                    3814 	.db #0x01	; 1
      000A3E 01                    3815 	.db #0x01	; 1
      000A3F 01                    3816 	.db #0x01	; 1
      000A40 01                    3817 	.db #0x01	; 1
      000A41 00                    3818 	.db #0x00	; 0
      000A42 00                    3819 	.db #0x00	; 0
      000A43 00                    3820 	.db #0x00	; 0
      000A44 00                    3821 	.db #0x00	; 0
      000A45 00                    3822 	.db #0x00	; 0
      000A46 00                    3823 	.db #0x00	; 0
      000A47 00                    3824 	.db #0x00	; 0
      000A48 00                    3825 	.db #0x00	; 0
      000A49 00                    3826 	.db #0x00	; 0
      000A4A 00                    3827 	.db #0x00	; 0
      000A4B 00                    3828 	.db #0x00	; 0
      000A4C 00                    3829 	.db #0x00	; 0
      000A4D 42                    3830 	.db #0x42	; 66	'B'
      000A4E 43                    3831 	.db #0x43	; 67	'C'
      000A4F 41                    3832 	.db #0x41	; 65	'A'
      000A50 00                    3833 	.db #0x00	; 0
      000A51 01                    3834 	.db #0x01	; 1
      000A52 01                    3835 	.db #0x01	; 1
      000A53 01                    3836 	.db #0x01	; 1
      000A54 01                    3837 	.db #0x01	; 1
      000A55 01                    3838 	.db #0x01	; 1
      000A56 01                    3839 	.db #0x01	; 1
      000A57 01                    3840 	.db #0x01	; 1
      000A58 01                    3841 	.db #0x01	; 1
      000A59 01                    3842 	.db #0x01	; 1
      000A5A 01                    3843 	.db #0x01	; 1
      000A5B 01                    3844 	.db #0x01	; 1
      000A5C 01                    3845 	.db #0x01	; 1
      000A5D 01                    3846 	.db #0x01	; 1
      000A5E 01                    3847 	.db #0x01	; 1
      000A5F 01                    3848 	.db #0x01	; 1
      000A60 01                    3849 	.db #0x01	; 1
      000A61 00                    3850 	.db #0x00	; 0
      000A62 00                    3851 	.db #0x00	; 0
      000A63 00                    3852 	.db #0x00	; 0
      000A64 00                    3853 	.db #0x00	; 0
      000A65 00                    3854 	.db #0x00	; 0
      000A66 00                    3855 	.db #0x00	; 0
      000A67 00                    3856 	.db #0x00	; 0
      000A68 00                    3857 	.db #0x00	; 0
      000A69 00                    3858 	.db #0x00	; 0
      000A6A 00                    3859 	.db #0x00	; 0
      000A6B 00                    3860 	.db #0x00	; 0
      000A6C 00                    3861 	.db #0x00	; 0
      000A6D 00                    3862 	.db #0x00	; 0
      000A6E 00                    3863 	.db #0x00	; 0
      000A6F 00                    3864 	.db #0x00	; 0
      000A70 00                    3865 	.db #0x00	; 0
      000A71 0F                    3866 	.db #0x0f	; 15
      000A72 02                    3867 	.db #0x02	; 2
      000A73 02                    3868 	.db #0x02	; 2
      000A74 02                    3869 	.db #0x02	; 2
      000A75 02                    3870 	.db #0x02	; 2
      000A76 02                    3871 	.db #0x02	; 2
      000A77 02                    3872 	.db #0x02	; 2
      000A78 02                    3873 	.db #0x02	; 2
      000A79 02                    3874 	.db #0x02	; 2
      000A7A 02                    3875 	.db #0x02	; 2
      000A7B 02                    3876 	.db #0x02	; 2
      000A7C 02                    3877 	.db #0x02	; 2
      000A7D 02                    3878 	.db #0x02	; 2
      000A7E 02                    3879 	.db #0x02	; 2
      000A7F 02                    3880 	.db #0x02	; 2
      000A80 10                    3881 	.db #0x10	; 16
      000A81 00                    3882 	.db #0x00	; 0
      000A82 00                    3883 	.db #0x00	; 0
      000A83 40                    3884 	.db #0x40	; 64
      000A84 3F                    3885 	.db #0x3f	; 63
      000A85 00                    3886 	.db #0x00	; 0
      000A86 00                    3887 	.db #0x00	; 0
      000A87 00                    3888 	.db #0x00	; 0
      000A88 00                    3889 	.db #0x00	; 0
      000A89 00                    3890 	.db #0x00	; 0
      000A8A 00                    3891 	.db #0x00	; 0
      000A8B 00                    3892 	.db #0x00	; 0
      000A8C 00                    3893 	.db #0x00	; 0
      000A8D 00                    3894 	.db #0x00	; 0
      000A8E 00                    3895 	.db #0x00	; 0
      000A8F 00                    3896 	.db #0x00	; 0
      000A90 00                    3897 	.db #0x00	; 0
      000A91 0C                    3898 	.db #0x0c	; 12
      000A92 03                    3899 	.db #0x03	; 3
      000A93 05                    3900 	.db #0x05	; 5
      000A94 06                    3901 	.db #0x06	; 6
      000A95 04                    3902 	.db #0x04	; 4
      000A96 02                    3903 	.db #0x02	; 2
      000A97 03                    3904 	.db #0x03	; 3
      000A98 05                    3905 	.db #0x05	; 5
      000A99 06                    3906 	.db #0x06	; 6
      000A9A 04                    3907 	.db #0x04	; 4
      000A9B 02                    3908 	.db #0x02	; 2
      000A9C 03                    3909 	.db #0x03	; 3
      000A9D 05                    3910 	.db #0x05	; 5
      000A9E 06                    3911 	.db #0x06	; 6
      000A9F 04                    3912 	.db #0x04	; 4
      000AA0 09                    3913 	.db #0x09	; 9
      000AA1 42                    3914 	.db #0x42	; 66	'B'
      000AA2 43                    3915 	.db #0x43	; 67	'C'
      000AA3 41                    3916 	.db #0x41	; 65	'A'
      000AA4 43                    3917 	.db #0x43	; 67	'C'
      000AA5 44                    3918 	.db #0x44	; 68	'D'
      000AA6 00                    3919 	.db #0x00	; 0
      000AA7 00                    3920 	.db #0x00	; 0
      000AA8 00                    3921 	.db #0x00	; 0
      000AA9 00                    3922 	.db #0x00	; 0
      000AAA 00                    3923 	.db #0x00	; 0
      000AAB 00                    3924 	.db #0x00	; 0
      000AAC 00                    3925 	.db #0x00	; 0
      000AAD 00                    3926 	.db #0x00	; 0
      000AAE 00                    3927 	.db #0x00	; 0
      000AAF 00                    3928 	.db #0x00	; 0
      000AB0 00                    3929 	.db #0x00	; 0
      000AB1 0C                    3930 	.db #0x0c	; 12
      000AB2 03                    3931 	.db #0x03	; 3
      000AB3 07                    3932 	.db #0x07	; 7
      000AB4 08                    3933 	.db #0x08	; 8
      000AB5 04                    3934 	.db #0x04	; 4
      000AB6 02                    3935 	.db #0x02	; 2
      000AB7 03                    3936 	.db #0x03	; 3
      000AB8 07                    3937 	.db #0x07	; 7
      000AB9 08                    3938 	.db #0x08	; 8
      000ABA 04                    3939 	.db #0x04	; 4
      000ABB 02                    3940 	.db #0x02	; 2
      000ABC 03                    3941 	.db #0x03	; 3
      000ABD 07                    3942 	.db #0x07	; 7
      000ABE 08                    3943 	.db #0x08	; 8
      000ABF 04                    3944 	.db #0x04	; 4
      000AC0 0A                    3945 	.db #0x0a	; 10
      000AC1 00                    3946 	.db #0x00	; 0
      000AC2 00                    3947 	.db #0x00	; 0
      000AC3 00                    3948 	.db #0x00	; 0
      000AC4 00                    3949 	.db #0x00	; 0
      000AC5 00                    3950 	.db #0x00	; 0
      000AC6 00                    3951 	.db #0x00	; 0
      000AC7 00                    3952 	.db #0x00	; 0
      000AC8 00                    3953 	.db #0x00	; 0
      000AC9 00                    3954 	.db #0x00	; 0
      000ACA 00                    3955 	.db #0x00	; 0
      000ACB 00                    3956 	.db #0x00	; 0
      000ACC 00                    3957 	.db #0x00	; 0
      000ACD 40                    3958 	.db #0x40	; 64
      000ACE 3F                    3959 	.db #0x3f	; 63
      000ACF 00                    3960 	.db #0x00	; 0
      000AD0 00                    3961 	.db #0x00	; 0
      000AD1 0D                    3962 	.db #0x0d	; 13
      000AD2 02                    3963 	.db #0x02	; 2
      000AD3 02                    3964 	.db #0x02	; 2
      000AD4 02                    3965 	.db #0x02	; 2
      000AD5 02                    3966 	.db #0x02	; 2
      000AD6 02                    3967 	.db #0x02	; 2
      000AD7 02                    3968 	.db #0x02	; 2
      000AD8 02                    3969 	.db #0x02	; 2
      000AD9 02                    3970 	.db #0x02	; 2
      000ADA 02                    3971 	.db #0x02	; 2
      000ADB 02                    3972 	.db #0x02	; 2
      000ADC 02                    3973 	.db #0x02	; 2
      000ADD 02                    3974 	.db #0x02	; 2
      000ADE 02                    3975 	.db #0x02	; 2
      000ADF 02                    3976 	.db #0x02	; 2
      000AE0 0B                    3977 	.db #0x0b	; 11
      000AE1 00                    3978 	.db #0x00	; 0
      000AE2 00                    3979 	.db #0x00	; 0
      000AE3 00                    3980 	.db #0x00	; 0
      000AE4 00                    3981 	.db #0x00	; 0
      000AE5 00                    3982 	.db #0x00	; 0
      000AE6 00                    3983 	.db #0x00	; 0
      000AE7 00                    3984 	.db #0x00	; 0
      000AE8 00                    3985 	.db #0x00	; 0
      000AE9 00                    3986 	.db #0x00	; 0
      000AEA 00                    3987 	.db #0x00	; 0
      000AEB 42                    3988 	.db #0x42	; 66	'B'
      000AEC 43                    3989 	.db #0x43	; 67	'C'
      000AED 41                    3990 	.db #0x41	; 65	'A'
      000AEE 43                    3991 	.db #0x43	; 67	'C'
      000AEF 44                    3992 	.db #0x44	; 68	'D'
      000AF0 00                    3993 	.db #0x00	; 0
      000AF1 0E                    3994 	.db #0x0e	; 14
      000AF2 02                    3995 	.db #0x02	; 2
      000AF3 46                    3996 	.db #0x46	; 70	'F'
      000AF4 48                    3997 	.db #0x48	; 72	'H'
      000AF5 02                    3998 	.db #0x02	; 2
      000AF6 02                    3999 	.db #0x02	; 2
      000AF7 02                    4000 	.db #0x02	; 2
      000AF8 46                    4001 	.db #0x46	; 70	'F'
      000AF9 48                    4002 	.db #0x48	; 72	'H'
      000AFA 02                    4003 	.db #0x02	; 2
      000AFB 02                    4004 	.db #0x02	; 2
      000AFC 02                    4005 	.db #0x02	; 2
      000AFD 46                    4006 	.db #0x46	; 70	'F'
      000AFE 48                    4007 	.db #0x48	; 72	'H'
      000AFF 02                    4008 	.db #0x02	; 2
      000B00 09                    4009 	.db #0x09	; 9
      000B01 00                    4010 	.db #0x00	; 0
      000B02 00                    4011 	.db #0x00	; 0
      000B03 00                    4012 	.db #0x00	; 0
      000B04 00                    4013 	.db #0x00	; 0
      000B05 00                    4014 	.db #0x00	; 0
      000B06 00                    4015 	.db #0x00	; 0
      000B07 00                    4016 	.db #0x00	; 0
      000B08 00                    4017 	.db #0x00	; 0
      000B09 36                    4018 	.db #0x36	; 54	'6'
      000B0A 00                    4019 	.db #0x00	; 0
      000B0B 00                    4020 	.db #0x00	; 0
      000B0C 00                    4021 	.db #0x00	; 0
      000B0D 00                    4022 	.db #0x00	; 0
      000B0E 00                    4023 	.db #0x00	; 0
      000B0F 00                    4024 	.db #0x00	; 0
      000B10 00                    4025 	.db #0x00	; 0
      000B11 0C                    4026 	.db #0x0c	; 12
      000B12 02                    4027 	.db #0x02	; 2
      000B13 47                    4028 	.db #0x47	; 71	'G'
      000B14 49                    4029 	.db #0x49	; 73	'I'
      000B15 02                    4030 	.db #0x02	; 2
      000B16 02                    4031 	.db #0x02	; 2
      000B17 02                    4032 	.db #0x02	; 2
      000B18 47                    4033 	.db #0x47	; 71	'G'
      000B19 49                    4034 	.db #0x49	; 73	'I'
      000B1A 02                    4035 	.db #0x02	; 2
      000B1B 02                    4036 	.db #0x02	; 2
      000B1C 02                    4037 	.db #0x02	; 2
      000B1D 47                    4038 	.db #0x47	; 71	'G'
      000B1E 49                    4039 	.db #0x49	; 73	'I'
      000B1F 02                    4040 	.db #0x02	; 2
      000B20 09                    4041 	.db #0x09	; 9
      000B21 00                    4042 	.db #0x00	; 0
      000B22 00                    4043 	.db #0x00	; 0
      000B23 22                    4044 	.db #0x22	; 34
      000B24 00                    4045 	.db #0x00	; 0
      000B25 00                    4046 	.db #0x00	; 0
      000B26 00                    4047 	.db #0x00	; 0
      000B27 00                    4048 	.db #0x00	; 0
      000B28 00                    4049 	.db #0x00	; 0
      000B29 37                    4050 	.db #0x37	; 55	'7'
      000B2A 00                    4051 	.db #0x00	; 0
      000B2B 00                    4052 	.db #0x00	; 0
      000B2C 00                    4053 	.db #0x00	; 0
      000B2D 00                    4054 	.db #0x00	; 0
      000B2E 22                    4055 	.db #0x22	; 34
      000B2F 00                    4056 	.db #0x00	; 0
      000B30 00                    4057 	.db #0x00	; 0
      000B31 0C                    4058 	.db #0x0c	; 12
      000B32 14                    4059 	.db #0x14	; 20
      000B33 11                    4060 	.db #0x11	; 17
      000B34 18                    4061 	.db #0x18	; 24
      000B35 1B                    4062 	.db #0x1b	; 27
      000B36 21                    4063 	.db #0x21	; 33
      000B37 14                    4064 	.db #0x14	; 20
      000B38 11                    4065 	.db #0x11	; 17
      000B39 18                    4066 	.db #0x18	; 24
      000B3A 1B                    4067 	.db #0x1b	; 27
      000B3B 21                    4068 	.db #0x21	; 33
      000B3C 14                    4069 	.db #0x14	; 20
      000B3D 11                    4070 	.db #0x11	; 17
      000B3E 18                    4071 	.db #0x18	; 24
      000B3F 1B                    4072 	.db #0x1b	; 27
      000B40 09                    4073 	.db #0x09	; 9
      000B41 00                    4074 	.db #0x00	; 0
      000B42 26                    4075 	.db #0x26	; 38
      000B43 23                    4076 	.db #0x23	; 35
      000B44 28                    4077 	.db #0x28	; 40
      000B45 00                    4078 	.db #0x00	; 0
      000B46 00                    4079 	.db #0x00	; 0
      000B47 00                    4080 	.db #0x00	; 0
      000B48 00                    4081 	.db #0x00	; 0
      000B49 38                    4082 	.db #0x38	; 56	'8'
      000B4A 00                    4083 	.db #0x00	; 0
      000B4B 00                    4084 	.db #0x00	; 0
      000B4C 00                    4085 	.db #0x00	; 0
      000B4D 26                    4086 	.db #0x26	; 38
      000B4E 23                    4087 	.db #0x23	; 35
      000B4F 28                    4088 	.db #0x28	; 40
      000B50 00                    4089 	.db #0x00	; 0
      000B51 0C                    4090 	.db #0x0c	; 12
      000B52 15                    4091 	.db #0x15	; 21
      000B53 12                    4092 	.db #0x12	; 18
      000B54 19                    4093 	.db #0x19	; 25
      000B55 1C                    4094 	.db #0x1c	; 28
      000B56 21                    4095 	.db #0x21	; 33
      000B57 15                    4096 	.db #0x15	; 21
      000B58 12                    4097 	.db #0x12	; 18
      000B59 19                    4098 	.db #0x19	; 25
      000B5A 1C                    4099 	.db #0x1c	; 28
      000B5B 21                    4100 	.db #0x21	; 33
      000B5C 15                    4101 	.db #0x15	; 21
      000B5D 12                    4102 	.db #0x12	; 18
      000B5E 19                    4103 	.db #0x19	; 25
      000B5F 1C                    4104 	.db #0x1c	; 28
      000B60 09                    4105 	.db #0x09	; 9
      000B61 00                    4106 	.db #0x00	; 0
      000B62 27                    4107 	.db #0x27	; 39
      000B63 24                    4108 	.db #0x24	; 36
      000B64 29                    4109 	.db #0x29	; 41
      000B65 00                    4110 	.db #0x00	; 0
      000B66 00                    4111 	.db #0x00	; 0
      000B67 00                    4112 	.db #0x00	; 0
      000B68 00                    4113 	.db #0x00	; 0
      000B69 39                    4114 	.db #0x39	; 57	'9'
      000B6A 00                    4115 	.db #0x00	; 0
      000B6B 00                    4116 	.db #0x00	; 0
      000B6C 00                    4117 	.db #0x00	; 0
      000B6D 27                    4118 	.db #0x27	; 39
      000B6E 24                    4119 	.db #0x24	; 36
      000B6F 29                    4120 	.db #0x29	; 41
      000B70 00                    4121 	.db #0x00	; 0
      000B71 0C                    4122 	.db #0x0c	; 12
      000B72 16                    4123 	.db #0x16	; 22
      000B73 13                    4124 	.db #0x13	; 19
      000B74 1A                    4125 	.db #0x1a	; 26
      000B75 1D                    4126 	.db #0x1d	; 29
      000B76 21                    4127 	.db #0x21	; 33
      000B77 16                    4128 	.db #0x16	; 22
      000B78 13                    4129 	.db #0x13	; 19
      000B79 1A                    4130 	.db #0x1a	; 26
      000B7A 1D                    4131 	.db #0x1d	; 29
      000B7B 21                    4132 	.db #0x21	; 33
      000B7C 16                    4133 	.db #0x16	; 22
      000B7D 13                    4134 	.db #0x13	; 19
      000B7E 1A                    4135 	.db #0x1a	; 26
      000B7F 1D                    4136 	.db #0x1d	; 29
      000B80 09                    4137 	.db #0x09	; 9
      000B81 00                    4138 	.db #0x00	; 0
      000B82 2A                    4139 	.db #0x2a	; 42
      000B83 39                    4140 	.db #0x39	; 57	'9'
      000B84 2A                    4141 	.db #0x2a	; 42
      000B85 00                    4142 	.db #0x00	; 0
      000B86 00                    4143 	.db #0x00	; 0
      000B87 3B                    4144 	.db #0x3b	; 59
      000B88 3B                    4145 	.db #0x3b	; 59
      000B89 3A                    4146 	.db #0x3a	; 58
      000B8A 3B                    4147 	.db #0x3b	; 59
      000B8B 3B                    4148 	.db #0x3b	; 59
      000B8C 00                    4149 	.db #0x00	; 0
      000B8D 2A                    4150 	.db #0x2a	; 42
      000B8E 39                    4151 	.db #0x39	; 57	'9'
      000B8F 2A                    4152 	.db #0x2a	; 42
      000B90 00                    4153 	.db #0x00	; 0
      000B91 1F                    4154 	.db #0x1f	; 31
      000B92 17                    4155 	.db #0x17	; 23
      000B93 13                    4156 	.db #0x13	; 19
      000B94 1A                    4157 	.db #0x1a	; 26
      000B95 1E                    4158 	.db #0x1e	; 30
      000B96 21                    4159 	.db #0x21	; 33
      000B97 17                    4160 	.db #0x17	; 23
      000B98 13                    4161 	.db #0x13	; 19
      000B99 1A                    4162 	.db #0x1a	; 26
      000B9A 1E                    4163 	.db #0x1e	; 30
      000B9B 21                    4164 	.db #0x21	; 33
      000B9C 17                    4165 	.db #0x17	; 23
      000B9D 13                    4166 	.db #0x13	; 19
      000B9E 1A                    4167 	.db #0x1a	; 26
      000B9F 1E                    4168 	.db #0x1e	; 30
      000BA0 20                    4169 	.db #0x20	; 32
      000BA1 00                    4170 	.db #0x00	; 0
      000BA2 00                    4171 	.db #0x00	; 0
      000BA3 25                    4172 	.db #0x25	; 37
      000BA4 00                    4173 	.db #0x00	; 0
      000BA5 00                    4174 	.db #0x00	; 0
      000BA6 00                    4175 	.db #0x00	; 0
      000BA7 3E                    4176 	.db #0x3e	; 62
      000BA8 3C                    4177 	.db #0x3c	; 60
      000BA9 3C                    4178 	.db #0x3c	; 60
      000BAA 3C                    4179 	.db #0x3c	; 60
      000BAB 3D                    4180 	.db #0x3d	; 61
      000BAC 00                    4181 	.db #0x00	; 0
      000BAD 00                    4182 	.db #0x00	; 0
      000BAE 25                    4183 	.db #0x25	; 37
      000BAF 00                    4184 	.db #0x00	; 0
      000BB0 45                    4185 	.db #0x45	; 69	'E'
      000BB1 45                    4186 	.db #0x45	; 69	'E'
      000BB2 45                    4187 	.db #0x45	; 69	'E'
      000BB3 45                    4188 	.db #0x45	; 69	'E'
      000BB4 45                    4189 	.db #0x45	; 69	'E'
      000BB5 45                    4190 	.db #0x45	; 69	'E'
      000BB6 45                    4191 	.db #0x45	; 69	'E'
      000BB7 45                    4192 	.db #0x45	; 69	'E'
      000BB8 45                    4193 	.db #0x45	; 69	'E'
      000BB9 45                    4194 	.db #0x45	; 69	'E'
      000BBA 45                    4195 	.db #0x45	; 69	'E'
      000BBB 45                    4196 	.db #0x45	; 69	'E'
      000BBC 45                    4197 	.db #0x45	; 69	'E'
      000BBD 45                    4198 	.db #0x45	; 69	'E'
      000BBE 45                    4199 	.db #0x45	; 69	'E'
      000BBF 45                    4200 	.db #0x45	; 69	'E'
      000BC0 45                    4201 	.db #0x45	; 69	'E'
      000BC1 45                    4202 	.db #0x45	; 69	'E'
      000BC2 45                    4203 	.db #0x45	; 69	'E'
      000BC3 45                    4204 	.db #0x45	; 69	'E'
      000BC4 45                    4205 	.db #0x45	; 69	'E'
      000BC5 45                    4206 	.db #0x45	; 69	'E'
      000BC6 45                    4207 	.db #0x45	; 69	'E'
      000BC7 45                    4208 	.db #0x45	; 69	'E'
      000BC8 45                    4209 	.db #0x45	; 69	'E'
      000BC9 45                    4210 	.db #0x45	; 69	'E'
      000BCA 45                    4211 	.db #0x45	; 69	'E'
      000BCB 45                    4212 	.db #0x45	; 69	'E'
      000BCC 45                    4213 	.db #0x45	; 69	'E'
      000BCD 45                    4214 	.db #0x45	; 69	'E'
      000BCE 45                    4215 	.db #0x45	; 69	'E'
      000BCF 45                    4216 	.db #0x45	; 69	'E'
      000BD0 4A                    4217 	.db #0x4a	; 74	'J'
      000BD1 4A                    4218 	.db #0x4a	; 74	'J'
      000BD2 4A                    4219 	.db #0x4a	; 74	'J'
      000BD3 4A                    4220 	.db #0x4a	; 74	'J'
      000BD4 4A                    4221 	.db #0x4a	; 74	'J'
      000BD5 4A                    4222 	.db #0x4a	; 74	'J'
      000BD6 4A                    4223 	.db #0x4a	; 74	'J'
      000BD7 4A                    4224 	.db #0x4a	; 74	'J'
      000BD8 4A                    4225 	.db #0x4a	; 74	'J'
      000BD9 4A                    4226 	.db #0x4a	; 74	'J'
      000BDA 4A                    4227 	.db #0x4a	; 74	'J'
      000BDB 4A                    4228 	.db #0x4a	; 74	'J'
      000BDC 4A                    4229 	.db #0x4a	; 74	'J'
      000BDD 4A                    4230 	.db #0x4a	; 74	'J'
      000BDE 4A                    4231 	.db #0x4a	; 74	'J'
      000BDF 4A                    4232 	.db #0x4a	; 74	'J'
      000BE0 4A                    4233 	.db #0x4a	; 74	'J'
      000BE1 4A                    4234 	.db #0x4a	; 74	'J'
      000BE2 4A                    4235 	.db #0x4a	; 74	'J'
      000BE3 4A                    4236 	.db #0x4a	; 74	'J'
      000BE4 4A                    4237 	.db #0x4a	; 74	'J'
      000BE5 4A                    4238 	.db #0x4a	; 74	'J'
      000BE6 4A                    4239 	.db #0x4a	; 74	'J'
      000BE7 4A                    4240 	.db #0x4a	; 74	'J'
      000BE8 4A                    4241 	.db #0x4a	; 74	'J'
      000BE9 4A                    4242 	.db #0x4a	; 74	'J'
      000BEA 4A                    4243 	.db #0x4a	; 74	'J'
      000BEB 4A                    4244 	.db #0x4a	; 74	'J'
      000BEC 4A                    4245 	.db #0x4a	; 74	'J'
      000BED 4A                    4246 	.db #0x4a	; 74	'J'
      000BEE 4A                    4247 	.db #0x4a	; 74	'J'
      000BEF 4A                    4248 	.db #0x4a	; 74	'J'
      000BF0                       4249 __xinit__onAnim:
      000BF0 00                    4250 	.db #0x00	; 0
      000BF1                       4251 __xinit__animation_tiles:
      000BF1 04                    4252 	.db #0x04	; 4
      000BF2 08                    4253 	.db #0x08	; 8
      000BF3                       4254 __xinit__animation_tiles2:
      000BF3 06                    4255 	.db #0x06	; 6
      000BF4 0A                    4256 	.db #0x0a	; 10
      000BF5                       4257 __xinit__offset:
      000BF5 08                    4258 	.db #0x08	; 8
      000BF6                       4259 __xinit__counterR:
      000BF6 00                    4260 	.db #0x00	; 0
      000BF7                       4261 __xinit__shot:
      000BF7 00                    4262 	.db #0x00	; 0
      000BF8                       4263 __xinit__from:
      000BF8 00                    4264 	.db #0x00	; 0
      000BF9                       4265 __xinit__speedR:
      000BF9 40                    4266 	.db #0x40	;  64
      000BFA 34                    4267 	.db #0x34	;  52	'4'
      000BFB 20                    4268 	.db #0x20	;  32
      000BFC 10                    4269 	.db #0x10	;  16
      000BFD 08                    4270 	.db #0x08	;  8
                                   4271 	.area _CABS (ABS)
