;--------------------------------------------------------
; File Created by SDCC : free open source ANSI-C Compiler
; Version 4.1.6 #12539 (MINGW32)
;--------------------------------------------------------
	.module scroll_bkg_need_ajust
	.optsdcc -mgbz80
	
;--------------------------------------------------------
; Public variables in this module
;--------------------------------------------------------
	.globl _main
	.globl _index_calculation
	.globl _set_camera
	.globl _printf
	.globl _set_sprite_data
	.globl _set_bkg_submap
	.globl _set_bkg_data
	.globl _display_off
	.globl _wait_vbl_done
	.globl _joypad
	.globl _platform
	.globl _Main_sprites
	.globl _interior_L_map
	.globl _interior_tiles
	.globl _boost
	.globl _collide
	.globl _fallE
	.globl _jumpE
	.globl _player_posY
	.globl _player_posX
	.globl _redraw
	.globl _old_map_pos_y
	.globl _old_map_pos_x
	.globl _map_pos_y
	.globl _map_pos_x
	.globl _old_camera_y
	.globl _old_camera_x
	.globl _camera_y
	.globl _camera_x
	.globl _tileIndexTL
	.globl _indexTLy
	.globl _indexTLx
	.globl _floorPosition
	.globl _joy
;--------------------------------------------------------
; special function registers
;--------------------------------------------------------
;--------------------------------------------------------
; ram data
;--------------------------------------------------------
	.area _DATA
_joy::
	.ds 1
_floorPosition::
	.ds 1
_indexTLx::
	.ds 2
_indexTLy::
	.ds 2
_tileIndexTL::
	.ds 2
_camera_x::
	.ds 2
_camera_y::
	.ds 2
_old_camera_x::
	.ds 2
_old_camera_y::
	.ds 2
_map_pos_x::
	.ds 1
_map_pos_y::
	.ds 1
_old_map_pos_x::
	.ds 1
_old_map_pos_y::
	.ds 1
_redraw::
	.ds 1
_player_posX::
	.ds 2
_player_posY::
	.ds 2
_jumpE::
	.ds 1
_fallE::
	.ds 1
_collide::
	.ds 1
_boost::
	.ds 1
;--------------------------------------------------------
; ram data
;--------------------------------------------------------
	.area _INITIALIZED
_interior_tiles::
	.ds 768
_interior_L_map::
	.ds 3840
_Main_sprites::
	.ds 1280
_platform::
	.ds 3
;--------------------------------------------------------
; absolute external ram data
;--------------------------------------------------------
	.area _DABS (ABS)
;--------------------------------------------------------
; global & static initialisations
;--------------------------------------------------------
	.area _HOME
	.area _GSINIT
	.area _GSFINAL
	.area _GSINIT
;--------------------------------------------------------
; Home
;--------------------------------------------------------
	.area _HOME
	.area _HOME
;--------------------------------------------------------
; code
;--------------------------------------------------------
	.area _CODE
;scroll_bkg_need_ajust.c:37: void set_camera(){
;	---------------------------------
; Function set_camera
; ---------------------------------
_set_camera::
;scroll_bkg_need_ajust.c:39: SCY_REG = camera_y; SCX_REG = camera_x;
	ld	a, (#_camera_y)
	ldh	(_SCY_REG + 0), a
	ld	a, (#_camera_x)
	ldh	(_SCX_REG + 0), a
;scroll_bkg_need_ajust.c:41: map_pos_y = (uint8_t)(camera_y >> 3u); //Esta linea es para decir que "map_pos_y= camera_y/8" Estamos actualizando los valores para que coincidan con el indice del tile
	ld	hl, #_camera_y
	ld	a, (hl+)
	ld	c, a
	ld	b, (hl)
	srl	b
	rr	c
	srl	b
	rr	c
	srl	b
	rr	c
	ld	hl, #_map_pos_y
	ld	(hl), c
;scroll_bkg_need_ajust.c:42: if(map_pos_y != old_map_pos_y){ //cuando se inicializan las variables, map_pos_y es igual a 0 y old_map_pos_y es igual a 255 por lo que permite cumplir la condici√≥n
	ld	a, (hl)
	ld	hl, #_old_map_pos_y
	sub	a, (hl)
	jp	Z,00107$
;scroll_bkg_need_ajust.c:44: set_bkg_submap(map_pos_x, map_pos_y,MIN(21u,interior_L_mapWidth-map_pos_x),1,interior_L_map,interior_L_mapWidth);
	ld	hl, #_map_pos_x
	ld	e, (hl)
	ld	d, #0x00
	ld	c, (hl)
	ld	a, #0x78
	sub	a, e
	ld	e, a
	sbc	a, a
	sub	a, d
	ld	d, a
	ld	a, #0x78
	sub	a, c
	ld	c, a
	rlca
	ld	a, #0x15
	cp	a, e
	ld	a, #0x00
	sbc	a, d
	ld	a, #0x00
	rla
	ld	e, a
;scroll_bkg_need_ajust.c:43: if(camera_y < old_camera_y){
	push	de
	ld	de, #_camera_y
	ld	hl, #_old_camera_y
	ld	a, (de)
	inc	de
	sub	a, (hl)
	inc	hl
	ld	a, (de)
	sbc	a, (hl)
	pop	de
	jr	NC, 00104$
;scroll_bkg_need_ajust.c:44: set_bkg_submap(map_pos_x, map_pos_y,MIN(21u,interior_L_mapWidth-map_pos_x),1,interior_L_map,interior_L_mapWidth);
	ld	a, e
	or	a, a
	jr	Z, 00117$
	ld	bc, #0x0015
00117$:
	ld	a, c
	ld	h, #0x78
;	spillPairReg hl
;	spillPairReg hl
	push	hl
	inc	sp
	ld	de, #_interior_L_map
	push	de
	ld	h, #0x01
;	spillPairReg hl
;	spillPairReg hl
	push	hl
	inc	sp
	push	af
	inc	sp
	ld	a, (#_map_pos_y)
	ld	h, a
	ld	a, (#_map_pos_x)
	ld	l, a
	push	hl
	call	_set_bkg_submap
	add	sp, #7
	jr	00105$
00104$:
;scroll_bkg_need_ajust.c:47: if((interior_L_mapHeight - 18u) > map_pos_y) set_bkg_submap(map_pos_x, map_pos_y+18u, MIN(21u,interior_L_mapWidth-map_pos_x),1,interior_L_map,interior_L_mapWidth);
	ld	a, (#_map_pos_y)
	sub	a, #0x0e
	jr	NC, 00105$
	ld	a, e
	or	a, a
	jr	Z, 00119$
	ld	bc, #0x0015
00119$:
	ld	hl, #_map_pos_y
	ld	a, (hl)
	add	a, #0x12
	ld	h, #0x78
;	spillPairReg hl
;	spillPairReg hl
	push	hl
	inc	sp
	ld	de, #_interior_L_map
	push	de
	ld	h, #0x01
;	spillPairReg hl
;	spillPairReg hl
	push	hl
	inc	sp
	ld	h, c
;	spillPairReg hl
;	spillPairReg hl
	push	hl
	inc	sp
	push	af
	inc	sp
	ld	a, (#_map_pos_x)
	push	af
	inc	sp
	call	_set_bkg_submap
	add	sp, #7
00105$:
;scroll_bkg_need_ajust.c:50: old_map_pos_y = map_pos_y;
	ld	a, (#_map_pos_y)
	ld	(#_old_map_pos_y),a
00107$:
;scroll_bkg_need_ajust.c:53: map_pos_x = (uint8_t)(camera_x >> 3u);
	ld	hl, #_camera_x
	ld	a, (hl+)
	ld	c, a
	ld	b, (hl)
	srl	b
	rr	c
	srl	b
	rr	c
	srl	b
	rr	c
	ld	hl, #_map_pos_x
	ld	(hl), c
;scroll_bkg_need_ajust.c:54: if(map_pos_x != old_map_pos_x){
	ld	a, (hl)
	ld	hl, #_old_map_pos_x
	sub	a, (hl)
	jp	Z,00114$
;scroll_bkg_need_ajust.c:56: set_bkg_submap(map_pos_x, map_pos_y, 1, MIN(19u, interior_L_mapHeight - map_pos_y), interior_L_map, interior_L_mapWidth);
	ld	hl, #_map_pos_y
	ld	e, (hl)
	ld	d, #0x00
	ld	c, (hl)
	ld	a, #0x20
	sub	a, e
	ld	e, a
	sbc	a, a
	sub	a, d
	ld	d, a
	ld	a, #0x20
	sub	a, c
	ld	c, a
	rlca
	ld	a, #0x13
	cp	a, e
	ld	a, #0x00
	sbc	a, d
	ld	a, #0x00
	rla
	ld	e, a
;scroll_bkg_need_ajust.c:55: if(camera_x < old_camera_x){
	push	de
	ld	de, #_camera_x
	ld	hl, #_old_camera_x
	ld	a, (de)
	inc	de
	sub	a, (hl)
	inc	hl
	ld	a, (de)
	sbc	a, (hl)
	pop	de
	jr	NC, 00111$
;scroll_bkg_need_ajust.c:56: set_bkg_submap(map_pos_x, map_pos_y, 1, MIN(19u, interior_L_mapHeight - map_pos_y), interior_L_map, interior_L_mapWidth);
	ld	a, e
	or	a, a
	jr	Z, 00121$
	ld	bc, #0x0013
00121$:
	ld	a, c
	ld	h, #0x78
;	spillPairReg hl
;	spillPairReg hl
	push	hl
	inc	sp
	ld	de, #_interior_L_map
	push	de
	ld	h, a
	ld	l, #0x01
	push	hl
	ld	a, (#_map_pos_y)
	ld	h, a
	ld	a, (#_map_pos_x)
	ld	l, a
	push	hl
	call	_set_bkg_submap
	add	sp, #7
	jr	00112$
00111$:
;scroll_bkg_need_ajust.c:59: if((interior_L_mapWidth - 20u) > map_pos_x) set_bkg_submap(map_pos_x + 20u, map_pos_y, 1,MIN(19u,interior_L_mapHeight-map_pos_y),interior_L_map,interior_L_mapWidth);
	ld	a, (#_map_pos_x)
	sub	a, #0x64
	jr	NC, 00112$
	ld	a, e
	or	a, a
	jr	Z, 00123$
	ld	bc, #0x0013
00123$:
	ld	hl, #_map_pos_x
	ld	a, (hl)
	add	a, #0x14
	ld	h, #0x78
;	spillPairReg hl
;	spillPairReg hl
	push	hl
	inc	sp
	ld	de, #_interior_L_map
	push	de
	ld	h, c
;	spillPairReg hl
;	spillPairReg hl
	push	hl
	inc	sp
	ld	h, #0x01
;	spillPairReg hl
;	spillPairReg hl
	push	hl
	inc	sp
	ld	hl, #_map_pos_y
	ld	h, (hl)
;	spillPairReg hl
;	spillPairReg hl
	push	hl
	inc	sp
	push	af
	inc	sp
	call	_set_bkg_submap
	add	sp, #7
00112$:
;scroll_bkg_need_ajust.c:62: old_map_pos_x = map_pos_x;
	ld	a, (#_map_pos_x)
	ld	(#_old_map_pos_x),a
00114$:
;scroll_bkg_need_ajust.c:65: old_camera_x = camera_x, old_camera_y = camera_y;
	ld	a, (#_camera_x)
	ld	(#_old_camera_x),a
	ld	a, (#_camera_x + 1)
	ld	(#_old_camera_x + 1),a
	ld	a, (#_camera_y)
	ld	(#_old_camera_y),a
	ld	a, (#_camera_y + 1)
	ld	(#_old_camera_y + 1),a
;scroll_bkg_need_ajust.c:66: }
	ret
;scroll_bkg_need_ajust.c:68: uint16_t index_calculation(uint16_t worldmap_Pos_x, uint16_t worldmap_Pos_y){//usamos esto para calculcar. Probablemente necesitemos un offset para hacer el calculo correcto. 
;	---------------------------------
; Function index_calculation
; ---------------------------------
_index_calculation::
;scroll_bkg_need_ajust.c:71: indexTLx = worldmap_Pos_x >> 3; //Se divide entre 8 el valor de la posicion del jugador en x 
	ldhl	sp,	#2
	ld	a, (hl)
	ld	(#_indexTLx),a
	ldhl	sp,	#3
	ld	a, (hl)
	ld	hl, #_indexTLx + 1
	ld	(hl), a
	srl	(hl)
	dec	hl
	rr	(hl)
	inc	hl
	srl	(hl)
	dec	hl
	rr	(hl)
	inc	hl
	srl	(hl)
	dec	hl
	rr	(hl)
;scroll_bkg_need_ajust.c:72: indexTLy = worldmap_Pos_y >> 3; //Se divide entre 8 el valor de la posicion del jugador en y
	ldhl	sp,	#4
	ld	a, (hl)
	ld	(#_indexTLy),a
	ldhl	sp,	#5
	ld	a, (hl)
	ld	hl, #_indexTLy + 1
	ld	(hl), a
	srl	(hl)
	dec	hl
	rr	(hl)
	inc	hl
	srl	(hl)
	dec	hl
	rr	(hl)
	inc	hl
	srl	(hl)
	dec	hl
	rr	(hl)
;scroll_bkg_need_ajust.c:73: tileIndexTL = indexTLy + (indexTLx*interior_L_mapWidth); //el 20 representa el ancho del mapa
	ld	hl, #_indexTLx
	ld	a, (hl+)
	ld	c, a
	ld	b, (hl)
	ld	l, c
	ld	h, b
	add	hl, hl
	add	hl, bc
	add	hl, hl
	add	hl, bc
	add	hl, hl
	add	hl, bc
	add	hl, hl
	add	hl, hl
	add	hl, hl
	ld	c, l
	ld	b, h
	ld	hl, #_indexTLy
	ld	l, (hl)
;	spillPairReg hl
;	spillPairReg hl
	ld	a, (_indexTLy + 1)
	ld	h, a
;	spillPairReg hl
;	spillPairReg hl
	add	hl, bc
	ld	c, l
	ld	a, h
	ld	hl, #_tileIndexTL
	ld	(hl), c
	inc	hl
;scroll_bkg_need_ajust.c:82: return tileIndexTL;
	ld	(hl-), a
	ld	a, (hl+)
	ld	e, a
	ld	d, (hl)
;scroll_bkg_need_ajust.c:83: }
	ret
;scroll_bkg_need_ajust.c:106: void main(){
;	---------------------------------
; Function main
; ---------------------------------
_main::
;scroll_bkg_need_ajust.c:107: DISPLAY_OFF;
	call	_display_off
;scroll_bkg_need_ajust.c:109: NR52_REG = 0x80;
	ld	a, #0x80
	ldh	(_NR52_REG + 0), a
;scroll_bkg_need_ajust.c:110: NR51_REG = 0xFF;
	ld	a, #0xff
	ldh	(_NR51_REG + 0), a
;scroll_bkg_need_ajust.c:111: NR50_REG = 0x77;
	ld	a, #0x77
	ldh	(_NR50_REG + 0), a
;scroll_bkg_need_ajust.c:115: SPRITES_8x16;
	ldh	a, (_LCDC_REG + 0)
	or	a, #0x04
	ldh	(_LCDC_REG + 0), a
;scroll_bkg_need_ajust.c:116: set_sprite_data(0,19, Main_sprites);
	ld	de, #_Main_sprites
	push	de
	ld	hl, #0x1300
	push	hl
	call	_set_sprite_data
	add	sp, #4
;c:/gbdk/include/gb/gb.h:1447: shadow_OAM[nb].tile=tile;
	ld	hl, #(_shadow_OAM + 2)
	ld	(hl), #0x00
	ld	hl, #(_shadow_OAM + 6)
	ld	(hl), #0x02
;scroll_bkg_need_ajust.c:119: SHOW_BKG;
	ldh	a, (_LCDC_REG + 0)
	or	a, #0x01
	ldh	(_LCDC_REG + 0), a
;scroll_bkg_need_ajust.c:120: SHOW_SPRITES;
	ldh	a, (_LCDC_REG + 0)
	or	a, #0x02
	ldh	(_LCDC_REG + 0), a
;scroll_bkg_need_ajust.c:121: set_bkg_data(0,47u,interior_tiles);
	ld	de, #_interior_tiles
	push	de
	ld	hl, #0x2f00
	push	hl
	call	_set_bkg_data
	add	sp, #4
;scroll_bkg_need_ajust.c:122: map_pos_x = player_posX = 0;
	xor	a, a
	ld	hl, #_player_posX
	ld	(hl+), a
	ld	(hl), a
	ld	hl, #_map_pos_x
	ld	(hl), #0x00
;scroll_bkg_need_ajust.c:123: old_map_pos_x = 255;
	ld	hl, #_old_map_pos_x
	ld	(hl), #0xff
;scroll_bkg_need_ajust.c:124: old_map_pos_y = 255;
	ld	hl, #_old_map_pos_y
	ld	(hl), #0xff
;scroll_bkg_need_ajust.c:125: set_bkg_submap(map_pos_x, map_pos_y, 20,32,interior_L_map,interior_L_mapWidth);
	ld	a, #0x78
	push	af
	inc	sp
	ld	de, #_interior_L_map
	push	de
	ld	hl, #0x2014
	push	hl
	ld	a, (#_map_pos_y)
	ld	h, a
	ld	l, #0x00
	push	hl
	call	_set_bkg_submap
	add	sp, #7
;scroll_bkg_need_ajust.c:126: wait_vbl_done();
	call	_wait_vbl_done
;scroll_bkg_need_ajust.c:127: DISPLAY_ON;
	ldh	a, (_LCDC_REG + 0)
	or	a, #0x80
	ldh	(_LCDC_REG + 0), a
;scroll_bkg_need_ajust.c:128: player_posX=28;
	ld	hl, #_player_posX
	ld	a, #0x1c
	ld	(hl+), a
	xor	a, a
	ld	(hl), a
;scroll_bkg_need_ajust.c:129: player_posY=120;
	ld	hl, #_player_posY
	ld	a, #0x78
	ld	(hl+), a
	xor	a, a
	ld	(hl), a
;scroll_bkg_need_ajust.c:131: camera_x = player_posX-16;
	ld	hl, #_camera_x
	ld	a, #0x0c
	ld	(hl+), a
	xor	a, a
	ld	(hl), a
;scroll_bkg_need_ajust.c:132: camera_y = player_posY-8;
	ld	hl, #_camera_y
	ld	a, #0x70
	ld	(hl+), a
	xor	a, a
	ld	(hl), a
;c:/gbdk/include/gb/gb.h:1520: OAM_item_t * itm = &shadow_OAM[nb];
	ld	hl, #_shadow_OAM
;c:/gbdk/include/gb/gb.h:1521: itm->y=y, itm->x=x;
	ld	a, #0x78
	ld	(hl+), a
	ld	(hl), #0x1c
;scroll_bkg_need_ajust.c:134: move_sprite(1,player_posX+8,player_posY);
	ld	hl, #_player_posY
	ld	b, (hl)
	ld	a, (#_player_posX)
	add	a, #0x08
	ld	c, a
;c:/gbdk/include/gb/gb.h:1520: OAM_item_t * itm = &shadow_OAM[nb];
	ld	hl, #(_shadow_OAM + 4)
;c:/gbdk/include/gb/gb.h:1521: itm->y=y, itm->x=x;
	ld	a, b
	ld	(hl+), a
	ld	(hl), c
;scroll_bkg_need_ajust.c:135: old_camera_x = camera_x; old_camera_y = camera_y;
	ld	a, (#_camera_x)
	ld	(#_old_camera_x),a
	ld	a, (#_camera_x + 1)
	ld	(#_old_camera_x + 1),a
	ld	a, (#_camera_y)
	ld	(#_old_camera_y),a
	ld	a, (#_camera_y + 1)
	ld	(#_old_camera_y + 1),a
;scroll_bkg_need_ajust.c:137: redraw = FALSE;
	ld	hl, #_redraw
	ld	(hl), #0x00
;scroll_bkg_need_ajust.c:139: SCX_REG = camera_x; SCY_REG = camera_y;
	ld	a, (#_camera_x)
	ldh	(_SCX_REG + 0), a
	ld	a, (#_camera_y)
	ldh	(_SCY_REG + 0), a
;scroll_bkg_need_ajust.c:141: set_camera();
	call	_set_camera
;scroll_bkg_need_ajust.c:155: while(TRUE){
00129$:
;scroll_bkg_need_ajust.c:156: joy = joypad();
	call	_joypad
	ld	hl, #_joy
	ld	(hl), e
;scroll_bkg_need_ajust.c:158: if(joy & J_UP){
	ld	c, (hl)
	bit	2, c
	jr	Z, 00108$
;scroll_bkg_need_ajust.c:159: if(camera_y){
	ld	hl, #_camera_y + 1
	ld	a, (hl-)
	or	a, (hl)
	jr	Z, 00109$
;scroll_bkg_need_ajust.c:160: camera_y--;
	ld	a, (hl+)
	ld	e, a
	ld	a, (hl-)
	ld	d, a
	dec	de
	ld	a, e
	ld	(hl+), a
	ld	(hl), d
;scroll_bkg_need_ajust.c:161: player_posY--;
	ld	hl, #_player_posY
	ld	a, (hl+)
	ld	e, a
	ld	a, (hl-)
	ld	d, a
	dec	de
	ld	a, e
	ld	(hl+), a
	ld	(hl), d
;scroll_bkg_need_ajust.c:163: redraw = TRUE;
	ld	hl, #_redraw
	ld	(hl), #0x01
	jr	00109$
00108$:
;scroll_bkg_need_ajust.c:167: } else if (joy & J_DOWN){
	bit	3, c
	jr	Z, 00109$
;scroll_bkg_need_ajust.c:168: if(camera_y < camera_max_y){
	ld	hl, #_camera_y
	ld	a, (hl+)
	sub	a, #0x70
	ld	a, (hl)
	sbc	a, #0x00
	jr	NC, 00109$
;scroll_bkg_need_ajust.c:169: camera_y++;
	dec	hl
	inc	(hl)
	jr	NZ, 00204$
	inc	hl
	inc	(hl)
00204$:
;scroll_bkg_need_ajust.c:170: player_posY++;
	ld	hl, #_player_posY
	inc	(hl)
	jr	NZ, 00205$
	inc	hl
	inc	(hl)
00205$:
;scroll_bkg_need_ajust.c:172: redraw=TRUE;
	ld	hl, #_redraw
	ld	(hl), #0x01
00109$:
;scroll_bkg_need_ajust.c:179: if (joy & J_LEFT) {
	bit	1, c
	jr	Z, 00117$
;scroll_bkg_need_ajust.c:180: if (camera_x) {
	ld	hl, #_camera_x + 1
	ld	a, (hl-)
	or	a, (hl)
	jr	Z, 00118$
;scroll_bkg_need_ajust.c:181: camera_x--;
	ld	a, (hl+)
	ld	e, a
	ld	a, (hl-)
	ld	d, a
	dec	de
	ld	a, e
	ld	(hl+), a
	ld	(hl), d
;scroll_bkg_need_ajust.c:182: player_posX--;
	ld	hl, #_player_posX
	ld	a, (hl+)
	ld	e, a
	ld	a, (hl-)
	ld	d, a
	dec	de
	ld	a, e
	ld	(hl+), a
	ld	(hl), d
;scroll_bkg_need_ajust.c:184: redraw = TRUE;
	ld	hl, #_redraw
	ld	(hl), #0x01
	jr	00118$
00117$:
;scroll_bkg_need_ajust.c:189: } else if (joy & J_RIGHT){
	bit	0, c
	jr	Z, 00118$
;scroll_bkg_need_ajust.c:190: if(camera_x < camera_max_x){
	ld	hl, #_camera_x
	ld	a, (hl+)
	ld	c, a
	ld	b, (hl)
	ld	a, c
	sub	a, #0x20
	ld	a, b
	sbc	a, #0x03
	jr	NC, 00118$
;scroll_bkg_need_ajust.c:191: camera_x++;
	dec	hl
	inc	(hl)
	jr	NZ, 00208$
	inc	hl
	inc	(hl)
00208$:
;scroll_bkg_need_ajust.c:192: player_posX++;
	ld	hl, #_player_posX
	inc	(hl)
	jr	NZ, 00209$
	inc	hl
	inc	(hl)
00209$:
;scroll_bkg_need_ajust.c:195: redraw = TRUE;
	ld	hl, #_redraw
	ld	(hl), #0x01
00118$:
;scroll_bkg_need_ajust.c:200: if (interior_L_map[index_calculation(player_posX+16,player_posY+96)] == platform[0] || interior_L_map[index_calculation(player_posX+16,player_posY+96)] == platform[1] || interior_L_map[index_calculation(player_posX+16,player_posY+96)] == platform[2]){
	ld	hl, #_player_posY
	ld	a, (hl+)
	ld	b, (hl)
	add	a, #0x60
	ld	c, a
	jr	NC, 00210$
	inc	b
00210$:
	ld	hl, #_player_posX
	ld	a, (hl+)
	ld	e, a
	ld	d, (hl)
	ld	hl, #0x0010
	add	hl, de
	push	bc
	push	hl
	call	_index_calculation
	add	sp, #4
	ld	hl, #_interior_L_map
	add	hl, de
	ld	c, (hl)
	ld	a, (#_platform + 0)
	sub	a, c
	jr	Z, 00119$
	ld	hl, #_player_posY
	ld	a, (hl+)
	ld	b, (hl)
	add	a, #0x60
	ld	c, a
	jr	NC, 00212$
	inc	b
00212$:
	ld	hl, #_player_posX
	ld	a, (hl+)
	ld	e, a
	ld	d, (hl)
	ld	hl, #0x0010
	add	hl, de
	push	bc
	push	hl
	call	_index_calculation
	add	sp, #4
	ld	hl, #_interior_L_map
	add	hl, de
	ld	a, (hl)
	ld	hl, #_platform + 1
	ld	c, (hl)
	sub	a, c
	jr	Z, 00119$
	ld	hl, #_player_posY
	ld	a, (hl+)
	ld	b, (hl)
	add	a, #0x60
	ld	c, a
	jr	NC, 00214$
	inc	b
00214$:
	ld	hl, #_player_posX
	ld	a, (hl+)
	ld	e, a
	ld	d, (hl)
	ld	hl, #0x0010
	add	hl, de
	push	bc
	push	hl
	call	_index_calculation
	add	sp, #4
	ld	hl, #_interior_L_map
	add	hl, de
	ld	a, (hl)
	ld	hl, #_platform + 2
	ld	c, (hl)
	sub	a, c
	jr	NZ, 00120$
00119$:
;scroll_bkg_need_ajust.c:201: printf("collision at %u %u %u", (uint16_t)(indexTLx),(uint16_t)(indexTLy),(uint16_t)(tileIndexTL));
	ld	hl, #_tileIndexTL
	ld	a, (hl+)
	ld	e, a
	ld	d, (hl)
	push	de
	ld	hl, #_indexTLy
	ld	a, (hl+)
	ld	e, a
	ld	d, (hl)
	push	de
	ld	hl, #_indexTLx
	ld	a, (hl+)
	ld	e, a
	ld	d, (hl)
	push	de
	ld	de, #___str_0
	push	de
	call	_printf
	add	sp, #8
00120$:
;scroll_bkg_need_ajust.c:203: if(joy & J_A){
	ld	a, (#_joy)
	bit	4, a
	jr	Z, 00124$
;scroll_bkg_need_ajust.c:204: index_calculation(player_posX+16,player_posY+96);
	ld	hl, #_player_posY
	ld	a, (hl+)
	ld	b, (hl)
	add	a, #0x60
	ld	c, a
	jr	NC, 00218$
	inc	b
00218$:
	ld	hl, #_player_posX
	ld	a, (hl+)
	ld	e, a
	ld	d, (hl)
	ld	hl, #0x0010
	add	hl, de
	push	bc
	push	hl
	call	_index_calculation
	add	sp, #4
;scroll_bkg_need_ajust.c:205: printf("EStoy en %u %u %u", (uint16_t)(indexTLx),(uint16_t)(indexTLy),(uint16_t)(tileIndexTL));
	ld	hl, #_tileIndexTL
	ld	a, (hl+)
	ld	e, a
	ld	d, (hl)
	push	de
	ld	hl, #_indexTLy
	ld	a, (hl+)
	ld	e, a
	ld	d, (hl)
	push	de
	ld	hl, #_indexTLx
	ld	a, (hl+)
	ld	e, a
	ld	d, (hl)
	push	de
	ld	de, #___str_1
	push	de
	call	_printf
	add	sp, #8
00124$:
;scroll_bkg_need_ajust.c:207: if(redraw){
	ld	a, (#_redraw)
	or	a, a
	jr	Z, 00126$
;scroll_bkg_need_ajust.c:208: wait_vbl_done();
	call	_wait_vbl_done
;scroll_bkg_need_ajust.c:209: set_camera();
	call	_set_camera
;scroll_bkg_need_ajust.c:210: redraw=FALSE;
	ld	hl, #_redraw
	ld	(hl), #0x00
	jp	00129$
00126$:
;scroll_bkg_need_ajust.c:211: } else wait_vbl_done();
	call	_wait_vbl_done
;scroll_bkg_need_ajust.c:214: }
	jp	00129$
___str_0:
	.ascii "collision at %u %u %u"
	.db 0x00
___str_1:
	.ascii "EStoy en %u %u %u"
	.db 0x00
	.area _CODE
	.area _INITIALIZER
__xinit__interior_tiles:
	.db #0x00	; 0
	.db #0x00	; 0
	.db #0x00	; 0
	.db #0x00	; 0
	.db #0x00	; 0
	.db #0x00	; 0
	.db #0x00	; 0
	.db #0x00	; 0
	.db #0x00	; 0
	.db #0x00	; 0
	.db #0x00	; 0
	.db #0x00	; 0
	.db #0x00	; 0
	.db #0x00	; 0
	.db #0x00	; 0
	.db #0x00	; 0
	.db #0x3c	; 60
	.db #0x3c	; 60
	.db #0xc7	; 199
	.db #0xdb	; 219
	.db #0xa3	; 163
	.db #0x18	; 24
	.db #0xe6	; 230
	.db #0x18	; 24
	.db #0xc7	; 199
	.db #0x18	; 24
	.db #0xe1	; 225
	.db #0x18	; 24
	.db #0x67	; 103	'g'
	.db #0x18	; 24
	.db #0xe7	; 231
	.db #0x18	; 24
	.db #0x46	; 70	'F'
	.db #0x99	; 153
	.db #0xa5	; 165
	.db #0x5a	; 90	'Z'
	.db #0x83	; 131
	.db #0x3c	; 60
	.db #0x00	; 0
	.db #0xff	; 255
	.db #0x00	; 0
	.db #0xff	; 255
	.db #0xc3	; 195
	.db #0x3c	; 60
	.db #0x85	; 133
	.db #0x5a	; 90	'Z'
	.db #0x46	; 70	'F'
	.db #0x99	; 153
	.db #0xe7	; 231
	.db #0x18	; 24
	.db #0xe6	; 230
	.db #0x18	; 24
	.db #0x65	; 101	'e'
	.db #0x18	; 24
	.db #0xc7	; 199
	.db #0x18	; 24
	.db #0xe6	; 230
	.db #0x18	; 24
	.db #0xc5	; 197
	.db #0x18	; 24
	.db #0xc7	; 199
	.db #0xdb	; 219
	.db #0x3c	; 60
	.db #0x3c	; 60
	.db #0x00	; 0
	.db #0x00	; 0
	.db #0x01	; 1
	.db #0x01	; 1
	.db #0x07	; 7
	.db #0x06	; 6
	.db #0x0c	; 12
	.db #0x08	; 8
	.db #0x17	; 23
	.db #0x18	; 24
	.db #0x3b	; 59
	.db #0x24	; 36
	.db #0x24	; 36
	.db #0x22	; 34
	.db #0x7e	; 126
	.db #0x41	; 65	'A'
	.db #0x79	; 121	'y'
	.db #0x40	; 64
	.db #0x7f	; 127
	.db #0x40	; 64
	.db #0xcd	; 205
	.db #0x80	; 128
	.db #0x80	; 128
	.db #0xff	; 255
	.db #0x80	; 128
	.db #0xff	; 255
	.db #0xc6	; 198
	.db #0x80	; 128
	.db #0x7f	; 127
	.db #0x40	; 64
	.db #0x73	; 115	's'
	.db #0x40	; 64
	.db #0x7e	; 126
	.db #0x41	; 65	'A'
	.db #0x3d	; 61
	.db #0x22	; 34
	.db #0x23	; 35
	.db #0x24	; 36
	.db #0x15	; 21
	.db #0x18	; 24
	.db #0x0b	; 11
	.db #0x08	; 8
	.db #0x07	; 7
	.db #0x06	; 6
	.db #0x01	; 1
	.db #0x01	; 1
	.db #0x00	; 0
	.db #0x00	; 0
	.db #0x00	; 0
	.db #0x00	; 0
	.db #0x80	; 128
	.db #0x80	; 128
	.db #0xe0	; 224
	.db #0x60	; 96
	.db #0x90	; 144
	.db #0x10	; 16
	.db #0xe8	; 232
	.db #0x18	; 24
	.db #0xc4	; 196
	.db #0x24	; 36
	.db #0x1c	; 28
	.db #0x44	; 68	'D'
	.db #0x7e	; 126
	.db #0x82	; 130
	.db #0xea	; 234
	.db #0x02	; 2
	.db #0xfe	; 254
	.db #0x02	; 2
	.db #0x91	; 145
	.db #0x01	; 1
	.db #0x01	; 1
	.db #0xff	; 255
	.db #0x01	; 1
	.db #0xff	; 255
	.db #0x7f	; 127
	.db #0x01	; 1
	.db #0xfe	; 254
	.db #0x02	; 2
	.db #0xfe	; 254
	.db #0x02	; 2
	.db #0x7e	; 126
	.db #0x82	; 130
	.db #0xbc	; 188
	.db #0x44	; 68	'D'
	.db #0xdc	; 220
	.db #0x24	; 36
	.db #0xe8	; 232
	.db #0x18	; 24
	.db #0xf0	; 240
	.db #0x10	; 16
	.db #0xe0	; 224
	.db #0x60	; 96
	.db #0x80	; 128
	.db #0x80	; 128
	.db #0x00	; 0
	.db #0x00	; 0
	.db #0xff	; 255
	.db #0x04	; 4
	.db #0x06	; 6
	.db #0xfd	; 253
	.db #0x06	; 6
	.db #0xfd	; 253
	.db #0xff	; 255
	.db #0xff	; 255
	.db #0xff	; 255
	.db #0x20	; 32
	.db #0x30	; 48	'0'
	.db #0xef	; 239
	.db #0x30	; 48	'0'
	.db #0xef	; 239
	.db #0xff	; 255
	.db #0xff	; 255
	.db #0xdb	; 219
	.db #0xb6	; 182
	.db #0xdb	; 219
	.db #0xb6	; 182
	.db #0xdb	; 219
	.db #0xb6	; 182
	.db #0xdb	; 219
	.db #0xb6	; 182
	.db #0xdb	; 219
	.db #0xb6	; 182
	.db #0xdb	; 219
	.db #0xb6	; 182
	.db #0xdb	; 219
	.db #0xb6	; 182
	.db #0xdb	; 219
	.db #0xb6	; 182
	.db #0x1f	; 31
	.db #0x00	; 0
	.db #0x0f	; 15
	.db #0x00	; 0
	.db #0x07	; 7
	.db #0x00	; 0
	.db #0x00	; 0
	.db #0x07	; 7
	.db #0x00	; 0
	.db #0x03	; 3
	.db #0x01	; 1
	.db #0x00	; 0
	.db #0x00	; 0
	.db #0x03	; 3
	.db #0x00	; 0
	.db #0x01	; 1
	.db #0xa2	; 162
	.db #0x63	; 99	'c'
	.db #0xa2	; 162
	.db #0x63	; 99	'c'
	.db #0xff	; 255
	.db #0xe3	; 227
	.db #0xff	; 255
	.db #0xff	; 255
	.db #0x00	; 0
	.db #0xff	; 255
	.db #0xff	; 255
	.db #0x0f	; 15
	.db #0xff	; 255
	.db #0xf0	; 240
	.db #0x00	; 0
	.db #0xff	; 255
	.db #0xff	; 255
	.db #0x02	; 2
	.db #0x01	; 1
	.db #0xfe	; 254
	.db #0xfe	; 254
	.db #0xfd	; 253
	.db #0xfe	; 254
	.db #0xfd	; 253
	.db #0xfd	; 253
	.db #0x0b	; 11
	.db #0x05	; 5
	.db #0xfb	; 251
	.db #0xfb	; 251
	.db #0xf6	; 246
	.db #0xfb	; 251
	.db #0xf6	; 246
	.db #0x60	; 96
	.db #0x9f	; 159
	.db #0x9f	; 159
	.db #0x7f	; 127
	.db #0x7f	; 127
	.db #0xe0	; 224
	.db #0xff	; 255
	.db #0x9f	; 159
	.db #0xe0	; 224
	.db #0x60	; 96
	.db #0x80	; 128
	.db #0x80	; 128
	.db #0x00	; 0
	.db #0x00	; 0
	.db #0x00	; 0
	.db #0x00	; 0
	.db #0x70	; 112	'p'
	.db #0xd0	; 208
	.db #0x70	; 112	'p'
	.db #0xd0	; 208
	.db #0xe0	; 224
	.db #0xa0	; 160
	.db #0xe0	; 224
	.db #0xa0	; 160
	.db #0xc0	; 192
	.db #0x40	; 64
	.db #0xc0	; 192
	.db #0x40	; 64
	.db #0x80	; 128
	.db #0x80	; 128
	.db #0x80	; 128
	.db #0x80	; 128
	.db #0x00	; 0
	.db #0xff	; 255
	.db #0xff	; 255
	.db #0xff	; 255
	.db #0xff	; 255
	.db #0x00	; 0
	.db #0xff	; 255
	.db #0xff	; 255
	.db #0x00	; 0
	.db #0x00	; 0
	.db #0x00	; 0
	.db #0x00	; 0
	.db #0x00	; 0
	.db #0x00	; 0
	.db #0x00	; 0
	.db #0x00	; 0
	.db #0xf8	; 248
	.db #0x00	; 0
	.db #0xf0	; 240
	.db #0x00	; 0
	.db #0xe0	; 224
	.db #0x00	; 0
	.db #0x00	; 0
	.db #0xe0	; 224
	.db #0x00	; 0
	.db #0xc0	; 192
	.db #0x80	; 128
	.db #0x00	; 0
	.db #0x00	; 0
	.db #0xc0	; 192
	.db #0x00	; 0
	.db #0x80	; 128
	.db #0x1f	; 31
	.db #0x00	; 0
	.db #0x0f	; 15
	.db #0x00	; 0
	.db #0x07	; 7
	.db #0x00	; 0
	.db #0x00	; 0
	.db #0x1f	; 31
	.db #0x00	; 0
	.db #0x1f	; 31
	.db #0x07	; 7
	.db #0x08	; 8
	.db #0x00	; 0
	.db #0x1f	; 31
	.db #0x00	; 0
	.db #0x1f	; 31
	.db #0xf8	; 248
	.db #0x00	; 0
	.db #0xf0	; 240
	.db #0x00	; 0
	.db #0xe0	; 224
	.db #0x00	; 0
	.db #0x00	; 0
	.db #0xf8	; 248
	.db #0x00	; 0
	.db #0xf8	; 248
	.db #0xe0	; 224
	.db #0x10	; 16
	.db #0x00	; 0
	.db #0xf8	; 248
	.db #0x00	; 0
	.db #0xf8	; 248
	.db #0xff	; 255
	.db #0x00	; 0
	.db #0xff	; 255
	.db #0x0c	; 12
	.db #0xff	; 255
	.db #0x33	; 51	'3'
	.db #0x00	; 0
	.db #0xff	; 255
	.db #0x00	; 0
	.db #0xff	; 255
	.db #0xff	; 255
	.db #0x07	; 7
	.db #0x1f	; 31
	.db #0xe0	; 224
	.db #0x00	; 0
	.db #0xff	; 255
	.db #0xff	; 255
	.db #0x00	; 0
	.db #0xff	; 255
	.db #0x30	; 48	'0'
	.db #0xff	; 255
	.db #0xcc	; 204
	.db #0x00	; 0
	.db #0xff	; 255
	.db #0x00	; 0
	.db #0xff	; 255
	.db #0xff	; 255
	.db #0xe0	; 224
	.db #0xf8	; 248
	.db #0x07	; 7
	.db #0x00	; 0
	.db #0xff	; 255
	.db #0x18	; 24
	.db #0x18	; 24
	.db #0x24	; 36
	.db #0x24	; 36
	.db #0x24	; 36
	.db #0x24	; 36
	.db #0x42	; 66	'B'
	.db #0x66	; 102	'f'
	.db #0x42	; 66	'B'
	.db #0x5a	; 90	'Z'
	.db #0x42	; 66	'B'
	.db #0x42	; 66	'B'
	.db #0x42	; 66	'B'
	.db #0x66	; 102	'f'
	.db #0x81	; 129
	.db #0x99	; 153
	.db #0xc3	; 195
	.db #0x81	; 129
	.db #0xbd	; 189
	.db #0x81	; 129
	.db #0x81	; 129
	.db #0x81	; 129
	.db #0x81	; 129
	.db #0xc3	; 195
	.db #0x81	; 129
	.db #0xbd	; 189
	.db #0xff	; 255
	.db #0xdb	; 219
	.db #0x81	; 129
	.db #0xff	; 255
	.db #0xbd	; 189
	.db #0xc3	; 195
	.db #0xff	; 255
	.db #0xff	; 255
	.db #0x7f	; 127
	.db #0x00	; 0
	.db #0x3f	; 63
	.db #0x3f	; 63
	.db #0x2a	; 42
	.db #0x20	; 32
	.db #0x2a	; 42
	.db #0x20	; 32
	.db #0x1a	; 26
	.db #0x10	; 16
	.db #0x0a	; 10
	.db #0x08	; 8
	.db #0x07	; 7
	.db #0x07	; 7
	.db #0xff	; 255
	.db #0xff	; 255
	.db #0xff	; 255
	.db #0x00	; 0
	.db #0xff	; 255
	.db #0xff	; 255
	.db #0xaa	; 170
	.db #0x00	; 0
	.db #0xaa	; 170
	.db #0x00	; 0
	.db #0xaa	; 170
	.db #0x00	; 0
	.db #0xaa	; 170
	.db #0x00	; 0
	.db #0xff	; 255
	.db #0xff	; 255
	.db #0xff	; 255
	.db #0xff	; 255
	.db #0xfe	; 254
	.db #0x00	; 0
	.db #0xfc	; 252
	.db #0xfc	; 252
	.db #0xac	; 172
	.db #0x04	; 4
	.db #0xac	; 172
	.db #0x04	; 4
	.db #0xa8	; 168
	.db #0x08	; 8
	.db #0xb0	; 176
	.db #0x10	; 16
	.db #0xe0	; 224
	.db #0xe0	; 224
	.db #0x01	; 1
	.db #0x01	; 1
	.db #0x03	; 3
	.db #0x00	; 0
	.db #0x00	; 0
	.db #0x03	; 3
	.db #0x0a	; 10
	.db #0x00	; 0
	.db #0x0a	; 10
	.db #0x00	; 0
	.db #0x0a	; 10
	.db #0x00	; 0
	.db #0x0a	; 10
	.db #0x08	; 8
	.db #0x07	; 7
	.db #0x07	; 7
	.db #0x80	; 128
	.db #0x80	; 128
	.db #0xc0	; 192
	.db #0x00	; 0
	.db #0x00	; 0
	.db #0xc0	; 192
	.db #0x50	; 80	'P'
	.db #0x00	; 0
	.db #0x50	; 80	'P'
	.db #0x00	; 0
	.db #0x50	; 80	'P'
	.db #0x00	; 0
	.db #0x50	; 80	'P'
	.db #0x10	; 16
	.db #0xe0	; 224
	.db #0xe0	; 224
	.db #0x05	; 5
	.db #0x03	; 3
	.db #0x05	; 5
	.db #0x03	; 3
	.db #0x05	; 5
	.db #0x03	; 3
	.db #0x05	; 5
	.db #0x03	; 3
	.db #0x0a	; 10
	.db #0x07	; 7
	.db #0x15	; 21
	.db #0x0f	; 15
	.db #0x2a	; 42
	.db #0x1f	; 31
	.db #0xb6	; 182
	.db #0x7f	; 127
	.db #0x80	; 128
	.db #0x00	; 0
	.db #0x80	; 128
	.db #0x00	; 0
	.db #0x80	; 128
	.db #0x00	; 0
	.db #0x80	; 128
	.db #0x00	; 0
	.db #0xc0	; 192
	.db #0x80	; 128
	.db #0x60	; 96
	.db #0xc0	; 192
	.db #0xb0	; 176
	.db #0xe0	; 224
	.db #0xd8	; 216
	.db #0xf0	; 240
	.db #0x00	; 0
	.db #0x00	; 0
	.db #0x00	; 0
	.db #0x00	; 0
	.db #0x00	; 0
	.db #0x00	; 0
	.db #0xff	; 255
	.db #0x00	; 0
	.db #0x00	; 0
	.db #0x7f	; 127
	.db #0x3f	; 63
	.db #0x3f	; 63
	.db #0x0f	; 15
	.db #0x0f	; 15
	.db #0x05	; 5
	.db #0x03	; 3
	.db #0x00	; 0
	.db #0x00	; 0
	.db #0x00	; 0
	.db #0x00	; 0
	.db #0x00	; 0
	.db #0x00	; 0
	.db #0xfc	; 252
	.db #0x00	; 0
	.db #0x00	; 0
	.db #0xf8	; 248
	.db #0xf0	; 240
	.db #0xf0	; 240
	.db #0xc0	; 192
	.db #0xc0	; 192
	.db #0x80	; 128
	.db #0x00	; 0
	.db #0x00	; 0
	.db #0x00	; 0
	.db #0x3f	; 63
	.db #0x3f	; 63
	.db #0x7d	; 125
	.db #0x7d	; 125
	.db #0x00	; 0
	.db #0x18	; 24
	.db #0x32	; 50	'2'
	.db #0x4d	; 77	'M'
	.db #0x00	; 0
	.db #0x7f	; 127
	.db #0x7f	; 127
	.db #0x7f	; 127
	.db #0x00	; 0
	.db #0x22	; 34
	.db #0x00	; 0
	.db #0x00	; 0
	.db #0xef	; 239
	.db #0xef	; 239
	.db #0xfe	; 254
	.db #0xfe	; 254
	.db #0x00	; 0
	.db #0x66	; 102	'f'
	.db #0x0c	; 12
	.db #0xf3	; 243
	.db #0x61	; 97	'a'
	.db #0x9e	; 158
	.db #0xff	; 255
	.db #0xff	; 255
	.db #0x00	; 0
	.db #0x24	; 36
	.db #0xff	; 255
	.db #0xaa	; 170
	.db #0xff	; 255
	.db #0x55	; 85	'U'
	.db #0xff	; 255
	.db #0xaa	; 170
	.db #0x00	; 0
	.db #0xff	; 255
	.db #0x00	; 0
	.db #0xff	; 255
	.db #0x00	; 0
	.db #0xff	; 255
	.db #0x00	; 0
	.db #0xff	; 255
	.db #0x00	; 0
	.db #0xff	; 255
	.db #0x00	; 0
	.db #0xff	; 255
	.db #0x00	; 0
	.db #0xff	; 255
	.db #0x00	; 0
	.db #0xff	; 255
	.db #0x00	; 0
	.db #0xff	; 255
	.db #0x00	; 0
	.db #0xff	; 255
	.db #0x00	; 0
	.db #0xff	; 255
	.db #0x00	; 0
	.db #0xff	; 255
	.db #0x00	; 0
	.db #0xff	; 255
	.db #0xff	; 255
	.db #0x40	; 64
	.db #0x80	; 128
	.db #0x7f	; 127
	.db #0x7f	; 127
	.db #0xbf	; 191
	.db #0x7f	; 127
	.db #0xbf	; 191
	.db #0xbf	; 191
	.db #0xd0	; 208
	.db #0xa0	; 160
	.db #0xdf	; 223
	.db #0xdf	; 223
	.db #0x6f	; 111	'o'
	.db #0xdf	; 223
	.db #0x6f	; 111	'o'
	.db #0x00	; 0
	.db #0xff	; 255
	.db #0x01	; 1
	.db #0xfe	; 254
	.db #0x06	; 6
	.db #0xf9	; 249
	.db #0x09	; 9
	.db #0xf7	; 247
	.db #0x17	; 23
	.db #0xee	; 238
	.db #0x2f	; 47
	.db #0xd9	; 217
	.db #0x5e	; 94
	.db #0xb6	; 182
	.db #0xb8	; 184
	.db #0x68	; 104	'h'
	.db #0x00	; 0
	.db #0xff	; 255
	.db #0x80	; 128
	.db #0x7f	; 127
	.db #0x60	; 96
	.db #0x9f	; 159
	.db #0x90	; 144
	.db #0xef	; 239
	.db #0xe8	; 232
	.db #0x77	; 119	'w'
	.db #0xf4	; 244
	.db #0x9b	; 155
	.db #0x7a	; 122	'z'
	.db #0x6d	; 109	'm'
	.db #0x1d	; 29
	.db #0x16	; 22
	.db #0x06	; 6
	.db #0xf9	; 249
	.db #0xf9	; 249
	.db #0xfe	; 254
	.db #0xfe	; 254
	.db #0x07	; 7
	.db #0xff	; 255
	.db #0xf9	; 249
	.db #0x07	; 7
	.db #0x06	; 6
	.db #0x01	; 1
	.db #0x01	; 1
	.db #0x00	; 0
	.db #0x00	; 0
	.db #0x00	; 0
	.db #0x00	; 0
	.db #0x0e	; 14
	.db #0x0b	; 11
	.db #0x0e	; 14
	.db #0x0b	; 11
	.db #0x07	; 7
	.db #0x05	; 5
	.db #0x07	; 7
	.db #0x05	; 5
	.db #0x03	; 3
	.db #0x02	; 2
	.db #0x03	; 3
	.db #0x02	; 2
	.db #0x01	; 1
	.db #0x01	; 1
	.db #0x01	; 1
	.db #0x01	; 1
	.db #0xc3	; 195
	.db #0xfc	; 252
	.db #0xc3	; 195
	.db #0xfc	; 252
	.db #0xc3	; 195
	.db #0xfc	; 252
	.db #0xc3	; 195
	.db #0xfc	; 252
	.db #0xc3	; 195
	.db #0xfc	; 252
	.db #0xc3	; 195
	.db #0xfc	; 252
	.db #0xc3	; 195
	.db #0xfc	; 252
	.db #0xc3	; 195
	.db #0xfc	; 252
	.db #0x1f	; 31
	.db #0xe0	; 224
	.db #0x1f	; 31
	.db #0xe0	; 224
	.db #0x1f	; 31
	.db #0xe0	; 224
	.db #0xe0	; 224
	.db #0xff	; 255
	.db #0xe0	; 224
	.db #0xff	; 255
	.db #0x1f	; 31
	.db #0xe0	; 224
	.db #0x1f	; 31
	.db #0xe0	; 224
	.db #0x1f	; 31
	.db #0xe0	; 224
	.db #0x00	; 0
	.db #0x88	; 136
	.db #0x00	; 0
	.db #0xff	; 255
	.db #0x00	; 0
	.db #0x22	; 34
	.db #0x00	; 0
	.db #0xff	; 255
	.db #0x00	; 0
	.db #0x88	; 136
	.db #0x00	; 0
	.db #0xff	; 255
	.db #0x00	; 0
	.db #0x22	; 34
	.db #0x00	; 0
	.db #0xff	; 255
	.db #0xff	; 255
	.db #0x00	; 0
	.db #0xe3	; 227
	.db #0x1c	; 28
	.db #0xdd	; 221
	.db #0x3e	; 62
	.db #0xa2	; 162
	.db #0x63	; 99	'c'
	.db #0xa2	; 162
	.db #0x63	; 99	'c'
	.db #0xa2	; 162
	.db #0x63	; 99	'c'
	.db #0xa2	; 162
	.db #0x63	; 99	'c'
	.db #0xa2	; 162
	.db #0x63	; 99	'c'
	.db #0x00	; 0
	.db #0x00	; 0
	.db #0x00	; 0
	.db #0x00	; 0
	.db #0x00	; 0
	.db #0x00	; 0
	.db #0x00	; 0
	.db #0x00	; 0
	.db #0x00	; 0
	.db #0x00	; 0
	.db #0x00	; 0
	.db #0x00	; 0
	.db #0x00	; 0
	.db #0x00	; 0
	.db #0x00	; 0
	.db #0x00	; 0
__xinit__interior_L_map:
	.db #0x00	; 0
	.db #0x00	; 0
	.db #0x00	; 0
	.db #0x2e	; 46
	.db #0x2e	; 46
	.db #0x0a	; 10
	.db #0x0a	; 10
	.db #0x0a	; 10
	.db #0x0a	; 10
	.db #0x2e	; 46
	.db #0x2e	; 46
	.db #0x25	; 37
	.db #0x2b	; 43
	.db #0x2b	; 43
	.db #0x2b	; 43
	.db #0x25	; 37
	.db #0x2e	; 46
	.db #0x2e	; 46
	.db #0x00	; 0
	.db #0x00	; 0
	.db #0x00	; 0
	.db #0x00	; 0
	.db #0x0c	; 12
	.db #0x0d	; 13
	.db #0x0a	; 10
	.db #0x0a	; 10
	.db #0x0a	; 10
	.db #0x0a	; 10
	.db #0x0d	; 13
	.db #0x12	; 18
	.db #0x00	; 0
	.db #0x00	; 0
	.db #0x2c	; 44
	.db #0x0a	; 10
	.db #0x0a	; 10
	.db #0x2b	; 43
	.db #0x2b	; 43
	.db #0x0a	; 10
	.db #0x0a	; 10
	.db #0x2c	; 44
	.db #0x00	; 0
	.db #0x00	; 0
	.db #0x00	; 0
	.db #0x00	; 0
	.db #0x00	; 0
	.db #0x00	; 0
	.db #0x0c	; 12
	.db #0x0d	; 13
	.db #0x0a	; 10
	.db #0x0a	; 10
	.db #0x0a	; 10
	.db #0x0d	; 13
	.db #0x0a	; 10
	.db #0x0a	; 10
	.db #0x0a	; 10
	.db #0x0d	; 13
	.db #0x12	; 18
	.db #0x00	; 0
	.db #0x00	; 0
	.db #0x00	; 0
	.db #0x00	; 0
	.db #0x2c	; 44
	.db #0x0a	; 10
	.db #0x0a	; 10
	.db #0x2b	; 43
	.db #0x2b	; 43
	.db #0x0a	; 10
	.db #0x0a	; 10
	.db #0x2c	; 44
	.db #0x00	; 0
	.db #0x00	; 0
	.db #0x00	; 0
	.db #0x00	; 0
	.db #0x00	; 0
	.db #0x00	; 0
	.db #0x2c	; 44
	.db #0x25	; 37
	.db #0x25	; 37
	.db #0x2b	; 43
	.db #0x2b	; 43
	.db #0x2b	; 43
	.db #0x25	; 37
	.db #0x25	; 37
	.db #0x2c	; 44
	.db #0x00	; 0
	.db #0x00	; 0
	.db #0x00	; 0
	.db #0x00	; 0
	.db #0x2c	; 44
	.db #0x0a	; 10
	.db #0x0a	; 10
	.db #0x2b	; 43
	.db #0x2b	; 43
	.db #0x0a	; 10
	.db #0x0a	; 10
	.db #0x2c	; 44
	.db #0x00	; 0
	.db #0x00	; 0
	.db #0x00	; 0
	.db #0x2c	; 44
	.db #0x0a	; 10
	.db #0x0a	; 10
	.db #0x0a	; 10
	.db #0x2b	; 43
	.db #0x2b	; 43
	.db #0x2b	; 43
	.db #0x0a	; 10
	.db #0x0a	; 10
	.db #0x0a	; 10
	.db #0x2c	; 44
	.db #0x00	; 0
	.db #0x00	; 0
	.db #0x00	; 0
	.db #0x00	; 0
	.db #0x00	; 0
	.db #0x00	; 0
	.db #0x00	; 0
	.db #0x00	; 0
	.db #0x00	; 0
	.db #0x00	; 0
	.db #0x00	; 0
	.db #0x00	; 0
	.db #0x0c	; 12
	.db #0x0d	; 13
	.db #0x0d	; 13
	.db #0x0a	; 10
	.db #0x0a	; 10
	.db #0x0a	; 10
	.db #0x0a	; 10
	.db #0x0d	; 13
	.db #0x0d	; 13
	.db #0x25	; 37
	.db #0x2b	; 43
	.db #0x2b	; 43
	.db #0x2b	; 43
	.db #0x25	; 37
	.db #0x0d	; 13
	.db #0x0d	; 13
	.db #0x12	; 18
	.db #0x00	; 0
	.db #0x00	; 0
	.db #0x00	; 0
	.db #0x00	; 0
	.db #0x0b	; 11
	.db #0x25	; 37
	.db #0x27	; 39
	.db #0x28	; 40
	.db #0x25	; 37
	.db #0x0b	; 11
	.db #0x00	; 0
	.db #0x00	; 0
	.db #0x00	; 0
	.db #0x2c	; 44
	.db #0x0a	; 10
	.db #0x0a	; 10
	.db #0x2b	; 43
	.db #0x2b	; 43
	.db #0x0a	; 10
	.db #0x0a	; 10
	.db #0x2c	; 44
	.db #0x00	; 0
	.db #0x17	; 23
	.db #0x00	; 0
	.db #0x00	; 0
	.db #0x00	; 0
	.db #0x00	; 0
	.db #0x00	; 0
	.db #0x0b	; 11
	.db #0x25	; 37
	.db #0x27	; 39
	.db #0x0f	; 15
	.db #0x11	; 17
	.db #0x29	; 41
	.db #0x28	; 40
	.db #0x25	; 37
	.db #0x0b	; 11
	.db #0x00	; 0
	.db #0x00	; 0
	.db #0x00	; 0
	.db #0x00	; 0
	.db #0x00	; 0
	.db #0x2c	; 44
	.db #0x0a	; 10
	.db #0x0a	; 10
	.db #0x2b	; 43
	.db #0x2b	; 43
	.db #0x0a	; 10
	.db #0x0a	; 10
	.db #0x2c	; 44
	.db #0x00	; 0
	.db #0x00	; 0
	.db #0x00	; 0
	.db #0x00	; 0
	.db #0x00	; 0
	.db #0x00	; 0
	.db #0x2c	; 44
	.db #0x25	; 37
	.db #0x25	; 37
	.db #0x2b	; 43
	.db #0x2b	; 43
	.db #0x2b	; 43
	.db #0x25	; 37
	.db #0x25	; 37
	.db #0x2c	; 44
	.db #0x00	; 0
	.db #0x00	; 0
	.db #0x00	; 0
	.db #0x00	; 0
	.db #0x2c	; 44
	.db #0x0a	; 10
	.db #0x0a	; 10
	.db #0x2b	; 43
	.db #0x2b	; 43
	.db #0x0a	; 10
	.db #0x0a	; 10
	.db #0x2c	; 44
	.db #0x00	; 0
	.db #0x00	; 0
	.db #0x00	; 0
	.db #0x2c	; 44
	.db #0x0a	; 10
	.db #0x0a	; 10
	.db #0x0a	; 10
	.db #0x2b	; 43
	.db #0x2b	; 43
	.db #0x2b	; 43
	.db #0x0a	; 10
	.db #0x0a	; 10
	.db #0x0a	; 10
	.db #0x2c	; 44
	.db #0x00	; 0
	.db #0x00	; 0
	.db #0x00	; 0
	.db #0x00	; 0
	.db #0x00	; 0
	.db #0x00	; 0
	.db #0x00	; 0
	.db #0x00	; 0
	.db #0x00	; 0
	.db #0x00	; 0
	.db #0x00	; 0
	.db #0x00	; 0
	.db #0x00	; 0
	.db #0x0b	; 11
	.db #0x25	; 37
	.db #0x27	; 39
	.db #0x0f	; 15
	.db #0x29	; 41
	.db #0x28	; 40
	.db #0x25	; 37
	.db #0x0b	; 11
	.db #0x25	; 37
	.db #0x2b	; 43
	.db #0x2b	; 43
	.db #0x2b	; 43
	.db #0x25	; 37
	.db #0x0b	; 11
	.db #0x0b	; 11
	.db #0x00	; 0
	.db #0x00	; 0
	.db #0x00	; 0
	.db #0x00	; 0
	.db #0x00	; 0
	.db #0x0b	; 11
	.db #0x0e	; 14
	.db #0x10	; 16
	.db #0x2a	; 42
	.db #0x26	; 38
	.db #0x0b	; 11
	.db #0x00	; 0
	.db #0x00	; 0
	.db #0x00	; 0
	.db #0x2e	; 46
	.db #0x0a	; 10
	.db #0x2e	; 46
	.db #0x2b	; 43
	.db #0x2b	; 43
	.db #0x2e	; 46
	.db #0x0a	; 10
	.db #0x2e	; 46
	.db #0x00	; 0
	.db #0x18	; 24
	.db #0x00	; 0
	.db #0x00	; 0
	.db #0x04	; 4
	.db #0x01	; 1
	.db #0x07	; 7
	.db #0x0b	; 11
	.db #0x0e	; 14
	.db #0x10	; 16
	.db #0x00	; 0
	.db #0x00	; 0
	.db #0x00	; 0
	.db #0x2a	; 42
	.db #0x26	; 38
	.db #0x0b	; 11
	.db #0x00	; 0
	.db #0x00	; 0
	.db #0x00	; 0
	.db #0x00	; 0
	.db #0x00	; 0
	.db #0x2c	; 44
	.db #0x0a	; 10
	.db #0x0a	; 10
	.db #0x2b	; 43
	.db #0x2b	; 43
	.db #0x0a	; 10
	.db #0x0a	; 10
	.db #0x2c	; 44
	.db #0x00	; 0
	.db #0x00	; 0
	.db #0x00	; 0
	.db #0x00	; 0
	.db #0x00	; 0
	.db #0x00	; 0
	.db #0x2c	; 44
	.db #0x25	; 37
	.db #0x25	; 37
	.db #0x2b	; 43
	.db #0x2b	; 43
	.db #0x2b	; 43
	.db #0x25	; 37
	.db #0x25	; 37
	.db #0x2c	; 44
	.db #0x00	; 0
	.db #0x00	; 0
	.db #0x00	; 0
	.db #0x00	; 0
	.db #0x2e	; 46
	.db #0x2e	; 46
	.db #0x0a	; 10
	.db #0x2e	; 46
	.db #0x2e	; 46
	.db #0x0a	; 10
	.db #0x2e	; 46
	.db #0x2e	; 46
	.db #0x00	; 0
	.db #0x00	; 0
	.db #0x00	; 0
	.db #0x2c	; 44
	.db #0x0a	; 10
	.db #0x0a	; 10
	.db #0x0a	; 10
	.db #0x2b	; 43
	.db #0x2b	; 43
	.db #0x2b	; 43
	.db #0x0a	; 10
	.db #0x0a	; 10
	.db #0x0a	; 10
	.db #0x2c	; 44
	.db #0x00	; 0
	.db #0x00	; 0
	.db #0x00	; 0
	.db #0x00	; 0
	.db #0x00	; 0
	.db #0x00	; 0
	.db #0x00	; 0
	.db #0x00	; 0
	.db #0x00	; 0
	.db #0x00	; 0
	.db #0x00	; 0
	.db #0x00	; 0
	.db #0x00	; 0
	.db #0x0b	; 11
	.db #0x0e	; 14
	.db #0x10	; 16
	.db #0x00	; 0
	.db #0x00	; 0
	.db #0x2a	; 42
	.db #0x26	; 38
	.db #0x0b	; 11
	.db #0x25	; 37
	.db #0x2b	; 43
	.db #0x2b	; 43
	.db #0x2b	; 43
	.db #0x25	; 37
	.db #0x0b	; 11
	.db #0x0b	; 11
	.db #0x00	; 0
	.db #0x00	; 0
	.db #0x00	; 0
	.db #0x00	; 0
	.db #0x00	; 0
	.db #0x0b	; 11
	.db #0x0b	; 11
	.db #0x2d	; 45
	.db #0x2d	; 45
	.db #0x0b	; 11
	.db #0x0b	; 11
	.db #0x00	; 0
	.db #0x00	; 0
	.db #0x0c	; 12
	.db #0x0d	; 13
	.db #0x0a	; 10
	.db #0x0d	; 13
	.db #0x2b	; 43
	.db #0x2b	; 43
	.db #0x0d	; 13
	.db #0x0a	; 10
	.db #0x0d	; 13
	.db #0x12	; 18
	.db #0x00	; 0
	.db #0x00	; 0
	.db #0x00	; 0
	.db #0x05	; 5
	.db #0x02	; 2
	.db #0x08	; 8
	.db #0x0b	; 11
	.db #0x0b	; 11
	.db #0x00	; 0
	.db #0x00	; 0
	.db #0x00	; 0
	.db #0x00	; 0
	.db #0x00	; 0
	.db #0x0b	; 11
	.db #0x0b	; 11
	.db #0x00	; 0
	.db #0x00	; 0
	.db #0x00	; 0
	.db #0x00	; 0
	.db #0x00	; 0
	.db #0x2c	; 44
	.db #0x0a	; 10
	.db #0x0a	; 10
	.db #0x2b	; 43
	.db #0x2b	; 43
	.db #0x0a	; 10
	.db #0x0a	; 10
	.db #0x2c	; 44
	.db #0x00	; 0
	.db #0x00	; 0
	.db #0x00	; 0
	.db #0x04	; 4
	.db #0x01	; 1
	.db #0x07	; 7
	.db #0x2c	; 44
	.db #0x25	; 37
	.db #0x25	; 37
	.db #0x2b	; 43
	.db #0x2b	; 43
	.db #0x2b	; 43
	.db #0x25	; 37
	.db #0x25	; 37
	.db #0x2c	; 44
	.db #0x00	; 0
	.db #0x00	; 0
	.db #0x00	; 0
	.db #0x0c	; 12
	.db #0x0d	; 13
	.db #0x0d	; 13
	.db #0x0a	; 10
	.db #0x0d	; 13
	.db #0x0d	; 13
	.db #0x0a	; 10
	.db #0x0d	; 13
	.db #0x0d	; 13
	.db #0x00	; 0
	.db #0x00	; 0
	.db #0x00	; 0
	.db #0x2c	; 44
	.db #0x0a	; 10
	.db #0x0a	; 10
	.db #0x0a	; 10
	.db #0x2b	; 43
	.db #0x2b	; 43
	.db #0x2b	; 43
	.db #0x0a	; 10
	.db #0x0a	; 10
	.db #0x0a	; 10
	.db #0x2c	; 44
	.db #0x00	; 0
	.db #0x00	; 0
	.db #0x00	; 0
	.db #0x00	; 0
	.db #0x00	; 0
	.db #0x00	; 0
	.db #0x00	; 0
	.db #0x00	; 0
	.db #0x00	; 0
	.db #0x00	; 0
	.db #0x00	; 0
	.db #0x00	; 0
	.db #0x00	; 0
	.db #0x0b	; 11
	.db #0x0b	; 11
	.db #0x00	; 0
	.db #0x00	; 0
	.db #0x00	; 0
	.db #0x00	; 0
	.db #0x0b	; 11
	.db #0x0b	; 11
	.db #0x0a	; 10
	.db #0x0a	; 10
	.db #0x0a	; 10
	.db #0x0a	; 10
	.db #0x0a	; 10
	.db #0x0b	; 11
	.db #0x0b	; 11
	.db #0x00	; 0
	.db #0x00	; 0
	.db #0x04	; 4
	.db #0x01	; 1
	.db #0x07	; 7
	.db #0x0b	; 11
	.db #0x1a	; 26
	.db #0x1a	; 26
	.db #0x1a	; 26
	.db #0x1a	; 26
	.db #0x0b	; 11
	.db #0x00	; 0
	.db #0x00	; 0
	.db #0x00	; 0
	.db #0x0b	; 11
	.db #0x25	; 37
	.db #0x27	; 39
	.db #0x0f	; 15
	.db #0x29	; 41
	.db #0x28	; 40
	.db #0x25	; 37
	.db #0x0b	; 11
	.db #0x00	; 0
	.db #0x00	; 0
	.db #0x00	; 0
	.db #0x00	; 0
	.db #0x06	; 6
	.db #0x03	; 3
	.db #0x09	; 9
	.db #0x0b	; 11
	.db #0x0b	; 11
	.db #0x00	; 0
	.db #0x04	; 4
	.db #0x01	; 1
	.db #0x07	; 7
	.db #0x00	; 0
	.db #0x0b	; 11
	.db #0x0b	; 11
	.db #0x00	; 0
	.db #0x00	; 0
	.db #0x00	; 0
	.db #0x00	; 0
	.db #0x00	; 0
	.db #0x2e	; 46
	.db #0x0a	; 10
	.db #0x0a	; 10
	.db #0x2e	; 46
	.db #0x2e	; 46
	.db #0x0a	; 10
	.db #0x0a	; 10
	.db #0x2e	; 46
	.db #0x00	; 0
	.db #0x00	; 0
	.db #0x00	; 0
	.db #0x05	; 5
	.db #0x02	; 2
	.db #0x08	; 8
	.db #0x2c	; 44
	.db #0x25	; 37
	.db #0x25	; 37
	.db #0x2b	; 43
	.db #0x2b	; 43
	.db #0x2b	; 43
	.db #0x25	; 37
	.db #0x25	; 37
	.db #0x2c	; 44
	.db #0x00	; 0
	.db #0x00	; 0
	.db #0x00	; 0
	.db #0x00	; 0
	.db #0x0b	; 11
	.db #0x25	; 37
	.db #0x27	; 39
	.db #0x0f	; 15
	.db #0x29	; 41
	.db #0x28	; 40
	.db #0x25	; 37
	.db #0x0b	; 11
	.db #0x00	; 0
	.db #0x00	; 0
	.db #0x00	; 0
	.db #0x2c	; 44
	.db #0x0a	; 10
	.db #0x0a	; 10
	.db #0x0a	; 10
	.db #0x2b	; 43
	.db #0x2b	; 43
	.db #0x2b	; 43
	.db #0x0a	; 10
	.db #0x0a	; 10
	.db #0x0a	; 10
	.db #0x2c	; 44
	.db #0x00	; 0
	.db #0x00	; 0
	.db #0x00	; 0
	.db #0x00	; 0
	.db #0x00	; 0
	.db #0x00	; 0
	.db #0x00	; 0
	.db #0x00	; 0
	.db #0x00	; 0
	.db #0x00	; 0
	.db #0x00	; 0
	.db #0x00	; 0
	.db #0x00	; 0
	.db #0x0b	; 11
	.db #0x0b	; 11
	.db #0x00	; 0
	.db #0x00	; 0
	.db #0x00	; 0
	.db #0x00	; 0
	.db #0x0b	; 11
	.db #0x0b	; 11
	.db #0x0a	; 10
	.db #0x0a	; 10
	.db #0x0a	; 10
	.db #0x0a	; 10
	.db #0x0a	; 10
	.db #0x0b	; 11
	.db #0x0b	; 11
	.db #0x00	; 0
	.db #0x00	; 0
	.db #0x05	; 5
	.db #0x02	; 2
	.db #0x08	; 8
	.db #0x0b	; 11
	.db #0x0b	; 11
	.db #0x00	; 0
	.db #0x00	; 0
	.db #0x0b	; 11
	.db #0x0b	; 11
	.db #0x00	; 0
	.db #0x00	; 0
	.db #0x00	; 0
	.db #0x0b	; 11
	.db #0x0e	; 14
	.db #0x10	; 16
	.db #0x00	; 0
	.db #0x00	; 0
	.db #0x2a	; 42
	.db #0x26	; 38
	.db #0x0b	; 11
	.db #0x00	; 0
	.db #0x00	; 0
	.db #0x00	; 0
	.db #0x00	; 0
	.db #0x00	; 0
	.db #0x00	; 0
	.db #0x00	; 0
	.db #0x0b	; 11
	.db #0x0b	; 11
	.db #0x00	; 0
	.db #0x05	; 5
	.db #0x02	; 2
	.db #0x08	; 8
	.db #0x00	; 0
	.db #0x0b	; 11
	.db #0x0b	; 11
	.db #0x00	; 0
	.db #0x00	; 0
	.db #0x00	; 0
	.db #0x00	; 0
	.db #0x0c	; 12
	.db #0x0d	; 13
	.db #0x0a	; 10
	.db #0x0a	; 10
	.db #0x0d	; 13
	.db #0x0d	; 13
	.db #0x0a	; 10
	.db #0x0a	; 10
	.db #0x0d	; 13
	.db #0x12	; 18
	.db #0x00	; 0
	.db #0x00	; 0
	.db #0x06	; 6
	.db #0x03	; 3
	.db #0x09	; 9
	.db #0x2c	; 44
	.db #0x25	; 37
	.db #0x25	; 37
	.db #0x2b	; 43
	.db #0x2b	; 43
	.db #0x2b	; 43
	.db #0x25	; 37
	.db #0x25	; 37
	.db #0x2c	; 44
	.db #0x17	; 23
	.db #0x00	; 0
	.db #0x00	; 0
	.db #0x17	; 23
	.db #0x0b	; 11
	.db #0x0e	; 14
	.db #0x10	; 16
	.db #0x00	; 0
	.db #0x00	; 0
	.db #0x2a	; 42
	.db #0x26	; 38
	.db #0x0b	; 11
	.db #0x00	; 0
	.db #0x00	; 0
	.db #0x00	; 0
	.db #0x2c	; 44
	.db #0x0a	; 10
	.db #0x0a	; 10
	.db #0x0a	; 10
	.db #0x2b	; 43
	.db #0x2b	; 43
	.db #0x2b	; 43
	.db #0x0a	; 10
	.db #0x0a	; 10
	.db #0x0a	; 10
	.db #0x2c	; 44
	.db #0x00	; 0
	.db #0x00	; 0
	.db #0x00	; 0
	.db #0x00	; 0
	.db #0x00	; 0
	.db #0x00	; 0
	.db #0x00	; 0
	.db #0x00	; 0
	.db #0x00	; 0
	.db #0x00	; 0
	.db #0x00	; 0
	.db #0x00	; 0
	.db #0x1c	; 28
	.db #0x1a	; 26
	.db #0x1a	; 26
	.db #0x1a	; 26
	.db #0x1a	; 26
	.db #0x1a	; 26
	.db #0x1a	; 26
	.db #0x1a	; 26
	.db #0x1a	; 26
	.db #0x1a	; 26
	.db #0x0a	; 10
	.db #0x0a	; 10
	.db #0x0a	; 10
	.db #0x1a	; 26
	.db #0x1a	; 26
	.db #0x1a	; 26
	.db #0x1d	; 29
	.db #0x00	; 0
	.db #0x06	; 6
	.db #0x03	; 3
	.db #0x09	; 9
	.db #0x0b	; 11
	.db #0x0b	; 11
	.db #0x00	; 0
	.db #0x00	; 0
	.db #0x0b	; 11
	.db #0x0b	; 11
	.db #0x00	; 0
	.db #0x1c	; 28
	.db #0x1a	; 26
	.db #0x1a	; 26
	.db #0x1a	; 26
	.db #0x17	; 23
	.db #0x00	; 0
	.db #0x00	; 0
	.db #0x00	; 0
	.db #0x0b	; 11
	.db #0x0b	; 11
	.db #0x00	; 0
	.db #0x00	; 0
	.db #0x00	; 0
	.db #0x00	; 0
	.db #0x00	; 0
	.db #0x00	; 0
	.db #0x00	; 0
	.db #0x0b	; 11
	.db #0x0b	; 11
	.db #0x00	; 0
	.db #0x06	; 6
	.db #0x03	; 3
	.db #0x09	; 9
	.db #0x00	; 0
	.db #0x0b	; 11
	.db #0x0b	; 11
	.db #0x00	; 0
	.db #0x00	; 0
	.db #0x00	; 0
	.db #0x00	; 0
	.db #0x00	; 0
	.db #0x0b	; 11
	.db #0x25	; 37
	.db #0x27	; 39
	.db #0x0f	; 15
	.db #0x29	; 41
	.db #0x28	; 40
	.db #0x25	; 37
	.db #0x0b	; 11
	.db #0x00	; 0
	.db #0x00	; 0
	.db #0x00	; 0
	.db #0x00	; 0
	.db #0x00	; 0
	.db #0x00	; 0
	.db #0x2e	; 46
	.db #0x25	; 37
	.db #0x2e	; 46
	.db #0x2b	; 43
	.db #0x2e	; 46
	.db #0x2b	; 43
	.db #0x2e	; 46
	.db #0x25	; 37
	.db #0x2e	; 46
	.db #0x18	; 24
	.db #0x00	; 0
	.db #0x00	; 0
	.db #0x18	; 24
	.db #0x0b	; 11
	.db #0x0b	; 11
	.db #0x00	; 0
	.db #0x00	; 0
	.db #0x00	; 0
	.db #0x00	; 0
	.db #0x0b	; 11
	.db #0x0b	; 11
	.db #0x00	; 0
	.db #0x00	; 0
	.db #0x00	; 0
	.db #0x2c	; 44
	.db #0x0a	; 10
	.db #0x0a	; 10
	.db #0x0a	; 10
	.db #0x2b	; 43
	.db #0x2b	; 43
	.db #0x2b	; 43
	.db #0x0a	; 10
	.db #0x0a	; 10
	.db #0x0a	; 10
	.db #0x2c	; 44
	.db #0x00	; 0
	.db #0x00	; 0
	.db #0x00	; 0
	.db #0x00	; 0
	.db #0x00	; 0
	.db #0x00	; 0
	.db #0x00	; 0
	.db #0x00	; 0
	.db #0x00	; 0
	.db #0x00	; 0
	.db #0x00	; 0
	.db #0x00	; 0
	.db #0x00	; 0
	.db #0x0b	; 11
	.db #0x0b	; 11
	.db #0x00	; 0
	.db #0x00	; 0
	.db #0x00	; 0
	.db #0x00	; 0
	.db #0x0b	; 11
	.db #0x0b	; 11
	.db #0x0a	; 10
	.db #0x0a	; 10
	.db #0x0a	; 10
	.db #0x0a	; 10
	.db #0x0a	; 10
	.db #0x0b	; 11
	.db #0x0b	; 11
	.db #0x00	; 0
	.db #0x00	; 0
	.db #0x19	; 25
	.db #0x1a	; 26
	.db #0x1a	; 26
	.db #0x1a	; 26
	.db #0x0b	; 11
	.db #0x00	; 0
	.db #0x17	; 23
	.db #0x0b	; 11
	.db #0x0b	; 11
	.db #0x00	; 0
	.db #0x00	; 0
	.db #0x00	; 0
	.db #0x0b	; 11
	.db #0x0b	; 11
	.db #0x18	; 24
	.db #0x00	; 0
	.db #0x1c	; 28
	.db #0x1a	; 26
	.db #0x1a	; 26
	.db #0x1a	; 26
	.db #0x1a	; 26
	.db #0x1a	; 26
	.db #0x1b	; 27
	.db #0x00	; 0
	.db #0x00	; 0
	.db #0x00	; 0
	.db #0x00	; 0
	.db #0x0b	; 11
	.db #0x0b	; 11
	.db #0x00	; 0
	.db #0x00	; 0
	.db #0x00	; 0
	.db #0x00	; 0
	.db #0x00	; 0
	.db #0x0b	; 11
	.db #0x0b	; 11
	.db #0x00	; 0
	.db #0x00	; 0
	.db #0x00	; 0
	.db #0x00	; 0
	.db #0x00	; 0
	.db #0x0b	; 11
	.db #0x0e	; 14
	.db #0x10	; 16
	.db #0x00	; 0
	.db #0x00	; 0
	.db #0x2a	; 42
	.db #0x26	; 38
	.db #0x0b	; 11
	.db #0x00	; 0
	.db #0x00	; 0
	.db #0x00	; 0
	.db #0x00	; 0
	.db #0x00	; 0
	.db #0x0c	; 12
	.db #0x0d	; 13
	.db #0x25	; 37
	.db #0x0d	; 13
	.db #0x2b	; 43
	.db #0x0d	; 13
	.db #0x2b	; 43
	.db #0x0d	; 13
	.db #0x25	; 37
	.db #0x0d	; 13
	.db #0x12	; 18
	.db #0x00	; 0
	.db #0x00	; 0
	.db #0x00	; 0
	.db #0x0b	; 11
	.db #0x0b	; 11
	.db #0x00	; 0
	.db #0x00	; 0
	.db #0x00	; 0
	.db #0x00	; 0
	.db #0x0b	; 11
	.db #0x0b	; 11
	.db #0x00	; 0
	.db #0x00	; 0
	.db #0x00	; 0
	.db #0x2c	; 44
	.db #0x0a	; 10
	.db #0x0a	; 10
	.db #0x0a	; 10
	.db #0x2b	; 43
	.db #0x2b	; 43
	.db #0x2b	; 43
	.db #0x0a	; 10
	.db #0x0a	; 10
	.db #0x0a	; 10
	.db #0x2c	; 44
	.db #0x00	; 0
	.db #0x00	; 0
	.db #0x00	; 0
	.db #0x00	; 0
	.db #0x00	; 0
	.db #0x00	; 0
	.db #0x00	; 0
	.db #0x00	; 0
	.db #0x00	; 0
	.db #0x00	; 0
	.db #0x00	; 0
	.db #0x00	; 0
	.db #0x00	; 0
	.db #0x0b	; 11
	.db #0x0b	; 11
	.db #0x00	; 0
	.db #0x00	; 0
	.db #0x00	; 0
	.db #0x00	; 0
	.db #0x0b	; 11
	.db #0x0b	; 11
	.db #0x27	; 39
	.db #0x0f	; 15
	.db #0x11	; 17
	.db #0x29	; 41
	.db #0x28	; 40
	.db #0x0b	; 11
	.db #0x0b	; 11
	.db #0x17	; 23
	.db #0x00	; 0
	.db #0x00	; 0
	.db #0x00	; 0
	.db #0x17	; 23
	.db #0x0b	; 11
	.db #0x0b	; 11
	.db #0x00	; 0
	.db #0x18	; 24
	.db #0x0b	; 11
	.db #0x0b	; 11
	.db #0x00	; 0
	.db #0x00	; 0
	.db #0x0c	; 12
	.db #0x15	; 21
	.db #0x16	; 22
	.db #0x12	; 18
	.db #0x00	; 0
	.db #0x00	; 0
	.db #0x0c	; 12
	.db #0x15	; 21
	.db #0x16	; 22
	.db #0x12	; 18
	.db #0x00	; 0
	.db #0x00	; 0
	.db #0x00	; 0
	.db #0x00	; 0
	.db #0x00	; 0
	.db #0x00	; 0
	.db #0x0b	; 11
	.db #0x0b	; 11
	.db #0x00	; 0
	.db #0x00	; 0
	.db #0x00	; 0
	.db #0x00	; 0
	.db #0x00	; 0
	.db #0x0b	; 11
	.db #0x0b	; 11
	.db #0x00	; 0
	.db #0x00	; 0
	.db #0x00	; 0
	.db #0x19	; 25
	.db #0x1a	; 26
	.db #0x1a	; 26
	.db #0x1a	; 26
	.db #0x1d	; 29
	.db #0x00	; 0
	.db #0x00	; 0
	.db #0x00	; 0
	.db #0x0b	; 11
	.db #0x0b	; 11
	.db #0x00	; 0
	.db #0x00	; 0
	.db #0x00	; 0
	.db #0x00	; 0
	.db #0x00	; 0
	.db #0x00	; 0
	.db #0x0b	; 11
	.db #0x25	; 37
	.db #0x27	; 39
	.db #0x0f	; 15
	.db #0x11	; 17
	.db #0x29	; 41
	.db #0x28	; 40
	.db #0x25	; 37
	.db #0x0b	; 11
	.db #0x00	; 0
	.db #0x00	; 0
	.db #0x00	; 0
	.db #0x13	; 19
	.db #0x15	; 21
	.db #0x16	; 22
	.db #0x14	; 20
	.db #0x00	; 0
	.db #0x00	; 0
	.db #0x13	; 19
	.db #0x15	; 21
	.db #0x16	; 22
	.db #0x14	; 20
	.db #0x00	; 0
	.db #0x00	; 0
	.db #0x2c	; 44
	.db #0x0a	; 10
	.db #0x0a	; 10
	.db #0x0a	; 10
	.db #0x2b	; 43
	.db #0x2b	; 43
	.db #0x2b	; 43
	.db #0x0a	; 10
	.db #0x0a	; 10
	.db #0x0a	; 10
	.db #0x2c	; 44
	.db #0x00	; 0
	.db #0x00	; 0
	.db #0x00	; 0
	.db #0x00	; 0
	.db #0x00	; 0
	.db #0x00	; 0
	.db #0x00	; 0
	.db #0x00	; 0
	.db #0x00	; 0
	.db #0x00	; 0
	.db #0x00	; 0
	.db #0x00	; 0
	.db #0x00	; 0
	.db #0x0b	; 11
	.db #0x0b	; 11
	.db #0x00	; 0
	.db #0x00	; 0
	.db #0x00	; 0
	.db #0x00	; 0
	.db #0x0b	; 11
	.db #0x0e	; 14
	.db #0x10	; 16
	.db #0x00	; 0
	.db #0x00	; 0
	.db #0x00	; 0
	.db #0x2a	; 42
	.db #0x26	; 38
	.db #0x0b	; 11
	.db #0x18	; 24
	.db #0x00	; 0
	.db #0x00	; 0
	.db #0x00	; 0
	.db #0x18	; 24
	.db #0x0b	; 11
	.db #0x0b	; 11
	.db #0x00	; 0
	.db #0x00	; 0
	.db #0x0b	; 11
	.db #0x0b	; 11
	.db #0x00	; 0
	.db #0x00	; 0
	.db #0x00	; 0
	.db #0x0b	; 11
	.db #0x0b	; 11
	.db #0x00	; 0
	.db #0x00	; 0
	.db #0x00	; 0
	.db #0x00	; 0
	.db #0x0b	; 11
	.db #0x0b	; 11
	.db #0x04	; 4
	.db #0x01	; 1
	.db #0x07	; 7
	.db #0x00	; 0
	.db #0x00	; 0
	.db #0x00	; 0
	.db #0x00	; 0
	.db #0x0b	; 11
	.db #0x0b	; 11
	.db #0x00	; 0
	.db #0x00	; 0
	.db #0x00	; 0
	.db #0x00	; 0
	.db #0x00	; 0
	.db #0x0b	; 11
	.db #0x0b	; 11
	.db #0x00	; 0
	.db #0x00	; 0
	.db #0x00	; 0
	.db #0x00	; 0
	.db #0x00	; 0
	.db #0x0b	; 11
	.db #0x0b	; 11
	.db #0x00	; 0
	.db #0x00	; 0
	.db #0x00	; 0
	.db #0x00	; 0
	.db #0x0b	; 11
	.db #0x0b	; 11
	.db #0x00	; 0
	.db #0x00	; 0
	.db #0x00	; 0
	.db #0x00	; 0
	.db #0x00	; 0
	.db #0x00	; 0
	.db #0x0b	; 11
	.db #0x0e	; 14
	.db #0x10	; 16
	.db #0x04	; 4
	.db #0x01	; 1
	.db #0x07	; 7
	.db #0x2a	; 42
	.db #0x26	; 38
	.db #0x0b	; 11
	.db #0x00	; 0
	.db #0x00	; 0
	.db #0x00	; 0
	.db #0x00	; 0
	.db #0x0b	; 11
	.db #0x0b	; 11
	.db #0x00	; 0
	.db #0x00	; 0
	.db #0x00	; 0
	.db #0x00	; 0
	.db #0x0b	; 11
	.db #0x0b	; 11
	.db #0x00	; 0
	.db #0x00	; 0
	.db #0x00	; 0
	.db #0x2c	; 44
	.db #0x0a	; 10
	.db #0x0a	; 10
	.db #0x0a	; 10
	.db #0x2b	; 43
	.db #0x2b	; 43
	.db #0x2b	; 43
	.db #0x0a	; 10
	.db #0x0a	; 10
	.db #0x0a	; 10
	.db #0x2c	; 44
	.db #0x00	; 0
	.db #0x00	; 0
	.db #0x00	; 0
	.db #0x00	; 0
	.db #0x00	; 0
	.db #0x00	; 0
	.db #0x00	; 0
	.db #0x00	; 0
	.db #0x00	; 0
	.db #0x00	; 0
	.db #0x00	; 0
	.db #0x00	; 0
	.db #0x00	; 0
	.db #0x0b	; 11
	.db #0x0b	; 11
	.db #0x00	; 0
	.db #0x00	; 0
	.db #0x00	; 0
	.db #0x00	; 0
	.db #0x0b	; 11
	.db #0x0b	; 11
	.db #0x17	; 23
	.db #0x00	; 0
	.db #0x00	; 0
	.db #0x00	; 0
	.db #0x17	; 23
	.db #0x0b	; 11
	.db #0x0b	; 11
	.db #0x00	; 0
	.db #0x00	; 0
	.db #0x00	; 0
	.db #0x00	; 0
	.db #0x00	; 0
	.db #0x0b	; 11
	.db #0x1a	; 26
	.db #0x1a	; 26
	.db #0x1b	; 27
	.db #0x0b	; 11
	.db #0x0b	; 11
	.db #0x00	; 0
	.db #0x00	; 0
	.db #0x00	; 0
	.db #0x0b	; 11
	.db #0x0b	; 11
	.db #0x00	; 0
	.db #0x00	; 0
	.db #0x00	; 0
	.db #0x17	; 23
	.db #0x0b	; 11
	.db #0x0b	; 11
	.db #0x05	; 5
	.db #0x02	; 2
	.db #0x08	; 8
	.db #0x00	; 0
	.db #0x00	; 0
	.db #0x00	; 0
	.db #0x00	; 0
	.db #0x0b	; 11
	.db #0x0b	; 11
	.db #0x00	; 0
	.db #0x00	; 0
	.db #0x00	; 0
	.db #0x00	; 0
	.db #0x19	; 25
	.db #0x1a	; 26
	.db #0x1a	; 26
	.db #0x1b	; 27
	.db #0x00	; 0
	.db #0x00	; 0
	.db #0x00	; 0
	.db #0x00	; 0
	.db #0x0b	; 11
	.db #0x0b	; 11
	.db #0x00	; 0
	.db #0x00	; 0
	.db #0x00	; 0
	.db #0x19	; 25
	.db #0x1a	; 26
	.db #0x1a	; 26
	.db #0x1b	; 27
	.db #0x00	; 0
	.db #0x00	; 0
	.db #0x00	; 0
	.db #0x00	; 0
	.db #0x0c	; 12
	.db #0x15	; 21
	.db #0x16	; 22
	.db #0x12	; 18
	.db #0x05	; 5
	.db #0x02	; 2
	.db #0x08	; 8
	.db #0x0c	; 12
	.db #0x15	; 21
	.db #0x16	; 22
	.db #0x12	; 18
	.db #0x00	; 0
	.db #0x00	; 0
	.db #0x00	; 0
	.db #0x0b	; 11
	.db #0x0b	; 11
	.db #0x00	; 0
	.db #0x00	; 0
	.db #0x00	; 0
	.db #0x00	; 0
	.db #0x0b	; 11
	.db #0x0b	; 11
	.db #0x00	; 0
	.db #0x00	; 0
	.db #0x00	; 0
	.db #0x2e	; 46
	.db #0x0a	; 10
	.db #0x0a	; 10
	.db #0x0a	; 10
	.db #0x2b	; 43
	.db #0x2e	; 46
	.db #0x2b	; 43
	.db #0x0a	; 10
	.db #0x0a	; 10
	.db #0x0a	; 10
	.db #0x2e	; 46
	.db #0x00	; 0
	.db #0x00	; 0
	.db #0x00	; 0
	.db #0x00	; 0
	.db #0x00	; 0
	.db #0x00	; 0
	.db #0x00	; 0
	.db #0x00	; 0
	.db #0x00	; 0
	.db #0x00	; 0
	.db #0x00	; 0
	.db #0x00	; 0
	.db #0x00	; 0
	.db #0x0b	; 11
	.db #0x0b	; 11
	.db #0x00	; 0
	.db #0x00	; 0
	.db #0x00	; 0
	.db #0x00	; 0
	.db #0x0b	; 11
	.db #0x0b	; 11
	.db #0x18	; 24
	.db #0x00	; 0
	.db #0x00	; 0
	.db #0x00	; 0
	.db #0x18	; 24
	.db #0x0b	; 11
	.db #0x0b	; 11
	.db #0x00	; 0
	.db #0x00	; 0
	.db #0x17	; 23
	.db #0x00	; 0
	.db #0x00	; 0
	.db #0x0b	; 11
	.db #0x0b	; 11
	.db #0x00	; 0
	.db #0x00	; 0
	.db #0x0b	; 11
	.db #0x0b	; 11
	.db #0x00	; 0
	.db #0x00	; 0
	.db #0x00	; 0
	.db #0x0b	; 11
	.db #0x0b	; 11
	.db #0x00	; 0
	.db #0x00	; 0
	.db #0x00	; 0
	.db #0x18	; 24
	.db #0x0b	; 11
	.db #0x0b	; 11
	.db #0x06	; 6
	.db #0x03	; 3
	.db #0x09	; 9
	.db #0x00	; 0
	.db #0x00	; 0
	.db #0x00	; 0
	.db #0x1c	; 28
	.db #0x1a	; 26
	.db #0x1a	; 26
	.db #0x1b	; 27
	.db #0x00	; 0
	.db #0x00	; 0
	.db #0x17	; 23
	.db #0x00	; 0
	.db #0x0b	; 11
	.db #0x0b	; 11
	.db #0x00	; 0
	.db #0x00	; 0
	.db #0x00	; 0
	.db #0x00	; 0
	.db #0x00	; 0
	.db #0x0b	; 11
	.db #0x0b	; 11
	.db #0x00	; 0
	.db #0x00	; 0
	.db #0x00	; 0
	.db #0x00	; 0
	.db #0x0b	; 11
	.db #0x0b	; 11
	.db #0x00	; 0
	.db #0x00	; 0
	.db #0x00	; 0
	.db #0x00	; 0
	.db #0x00	; 0
	.db #0x00	; 0
	.db #0x0b	; 11
	.db #0x0b	; 11
	.db #0x00	; 0
	.db #0x06	; 6
	.db #0x03	; 3
	.db #0x09	; 9
	.db #0x00	; 0
	.db #0x0b	; 11
	.db #0x0b	; 11
	.db #0x00	; 0
	.db #0x00	; 0
	.db #0x00	; 0
	.db #0x00	; 0
	.db #0x0b	; 11
	.db #0x0b	; 11
	.db #0x00	; 0
	.db #0x00	; 0
	.db #0x00	; 0
	.db #0x00	; 0
	.db #0x0b	; 11
	.db #0x0b	; 11
	.db #0x00	; 0
	.db #0x00	; 0
	.db #0x0c	; 12
	.db #0x0d	; 13
	.db #0x0a	; 10
	.db #0x0a	; 10
	.db #0x0a	; 10
	.db #0x2b	; 43
	.db #0x0d	; 13
	.db #0x2b	; 43
	.db #0x0a	; 10
	.db #0x0a	; 10
	.db #0x0a	; 10
	.db #0x0d	; 13
	.db #0x12	; 18
	.db #0x00	; 0
	.db #0x00	; 0
	.db #0x00	; 0
	.db #0x00	; 0
	.db #0x00	; 0
	.db #0x00	; 0
	.db #0x00	; 0
	.db #0x00	; 0
	.db #0x00	; 0
	.db #0x00	; 0
	.db #0x00	; 0
	.db #0x00	; 0
	.db #0x0b	; 11
	.db #0x0b	; 11
	.db #0x00	; 0
	.db #0x00	; 0
	.db #0x00	; 0
	.db #0x13	; 19
	.db #0x15	; 21
	.db #0x16	; 22
	.db #0x14	; 20
	.db #0x00	; 0
	.db #0x00	; 0
	.db #0x00	; 0
	.db #0x13	; 19
	.db #0x15	; 21
	.db #0x16	; 22
	.db #0x14	; 20
	.db #0x00	; 0
	.db #0x18	; 24
	.db #0x00	; 0
	.db #0x13	; 19
	.db #0x15	; 21
	.db #0x16	; 22
	.db #0x14	; 20
	.db #0x13	; 19
	.db #0x15	; 21
	.db #0x16	; 22
	.db #0x14	; 20
	.db #0x00	; 0
	.db #0x00	; 0
	.db #0x0b	; 11
	.db #0x0b	; 11
	.db #0x00	; 0
	.db #0x04	; 4
	.db #0x01	; 1
	.db #0x07	; 7
	.db #0x0b	; 11
	.db #0x0b	; 11
	.db #0x00	; 0
	.db #0x00	; 0
	.db #0x00	; 0
	.db #0x17	; 23
	.db #0x00	; 0
	.db #0x00	; 0
	.db #0x00	; 0
	.db #0x0b	; 11
	.db #0x0b	; 11
	.db #0x00	; 0
	.db #0x00	; 0
	.db #0x00	; 0
	.db #0x18	; 24
	.db #0x00	; 0
	.db #0x0b	; 11
	.db #0x0b	; 11
	.db #0x00	; 0
	.db #0x04	; 4
	.db #0x01	; 1
	.db #0x07	; 7
	.db #0x00	; 0
	.db #0x0b	; 11
	.db #0x0b	; 11
	.db #0x00	; 0
	.db #0x00	; 0
	.db #0x00	; 0
	.db #0x00	; 0
	.db #0x0b	; 11
	.db #0x0b	; 11
	.db #0x00	; 0
	.db #0x00	; 0
	.db #0x00	; 0
	.db #0x19	; 25
	.db #0x1a	; 26
	.db #0x1a	; 26
	.db #0x1a	; 26
	.db #0x1a	; 26
	.db #0x1a	; 26
	.db #0x1a	; 26
	.db #0x1a	; 26
	.db #0x1a	; 26
	.db #0x1a	; 26
	.db #0x1a	; 26
	.db #0x1a	; 26
	.db #0x1b	; 27
	.db #0x00	; 0
	.db #0x00	; 0
	.db #0x00	; 0
	.db #0x0b	; 11
	.db #0x0b	; 11
	.db #0x00	; 0
	.db #0x00	; 0
	.db #0x00	; 0
	.db #0x00	; 0
	.db #0x0b	; 11
	.db #0x0b	; 11
	.db #0x00	; 0
	.db #0x00	; 0
	.db #0x00	; 0
	.db #0x0b	; 11
	.db #0x25	; 37
	.db #0x27	; 39
	.db #0x0f	; 15
	.db #0x11	; 17
	.db #0x11	; 17
	.db #0x11	; 17
	.db #0x29	; 41
	.db #0x28	; 40
	.db #0x25	; 37
	.db #0x0b	; 11
	.db #0x00	; 0
	.db #0x00	; 0
	.db #0x00	; 0
	.db #0x00	; 0
	.db #0x00	; 0
	.db #0x00	; 0
	.db #0x00	; 0
	.db #0x00	; 0
	.db #0x00	; 0
	.db #0x00	; 0
	.db #0x00	; 0
	.db #0x00	; 0
	.db #0x00	; 0
	.db #0x0b	; 11
	.db #0x0b	; 11
	.db #0x00	; 0
	.db #0x04	; 4
	.db #0x01	; 1
	.db #0x07	; 7
	.db #0x0b	; 11
	.db #0x0b	; 11
	.db #0x00	; 0
	.db #0x00	; 0
	.db #0x17	; 23
	.db #0x00	; 0
	.db #0x00	; 0
	.db #0x0b	; 11
	.db #0x0b	; 11
	.db #0x00	; 0
	.db #0x00	; 0
	.db #0x00	; 0
	.db #0x00	; 0
	.db #0x00	; 0
	.db #0x0b	; 11
	.db #0x0b	; 11
	.db #0x00	; 0
	.db #0x00	; 0
	.db #0x0b	; 11
	.db #0x1a	; 26
	.db #0x1a	; 26
	.db #0x1d	; 29
	.db #0x00	; 0
	.db #0x0b	; 11
	.db #0x0b	; 11
	.db #0x00	; 0
	.db #0x05	; 5
	.db #0x02	; 2
	.db #0x08	; 8
	.db #0x0b	; 11
	.db #0x0b	; 11
	.db #0x00	; 0
	.db #0x00	; 0
	.db #0x00	; 0
	.db #0x18	; 24
	.db #0x00	; 0
	.db #0x00	; 0
	.db #0x00	; 0
	.db #0x0b	; 11
	.db #0x0b	; 11
	.db #0x00	; 0
	.db #0x00	; 0
	.db #0x00	; 0
	.db #0x00	; 0
	.db #0x00	; 0
	.db #0x0b	; 11
	.db #0x0b	; 11
	.db #0x00	; 0
	.db #0x05	; 5
	.db #0x02	; 2
	.db #0x08	; 8
	.db #0x00	; 0
	.db #0x0b	; 11
	.db #0x0b	; 11
	.db #0x17	; 23
	.db #0x00	; 0
	.db #0x00	; 0
	.db #0x17	; 23
	.db #0x0b	; 11
	.db #0x0b	; 11
	.db #0x00	; 0
	.db #0x00	; 0
	.db #0x00	; 0
	.db #0x00	; 0
	.db #0x00	; 0
	.db #0x00	; 0
	.db #0x0b	; 11
	.db #0x0b	; 11
	.db #0x00	; 0
	.db #0x00	; 0
	.db #0x00	; 0
	.db #0x00	; 0
	.db #0x00	; 0
	.db #0x0b	; 11
	.db #0x0b	; 11
	.db #0x00	; 0
	.db #0x00	; 0
	.db #0x00	; 0
	.db #0x00	; 0
	.db #0x0b	; 11
	.db #0x0b	; 11
	.db #0x00	; 0
	.db #0x00	; 0
	.db #0x00	; 0
	.db #0x00	; 0
	.db #0x0b	; 11
	.db #0x0b	; 11
	.db #0x00	; 0
	.db #0x00	; 0
	.db #0x00	; 0
	.db #0x0b	; 11
	.db #0x0e	; 14
	.db #0x10	; 16
	.db #0x00	; 0
	.db #0x00	; 0
	.db #0x00	; 0
	.db #0x00	; 0
	.db #0x00	; 0
	.db #0x2a	; 42
	.db #0x26	; 38
	.db #0x0b	; 11
	.db #0x00	; 0
	.db #0x00	; 0
	.db #0x00	; 0
	.db #0x00	; 0
	.db #0x00	; 0
	.db #0x00	; 0
	.db #0x00	; 0
	.db #0x00	; 0
	.db #0x00	; 0
	.db #0x00	; 0
	.db #0x00	; 0
	.db #0x00	; 0
	.db #0x00	; 0
	.db #0x0b	; 11
	.db #0x0b	; 11
	.db #0x00	; 0
	.db #0x05	; 5
	.db #0x02	; 2
	.db #0x08	; 8
	.db #0x0b	; 11
	.db #0x0b	; 11
	.db #0x00	; 0
	.db #0x00	; 0
	.db #0x18	; 24
	.db #0x00	; 0
	.db #0x00	; 0
	.db #0x0b	; 11
	.db #0x0b	; 11
	.db #0x00	; 0
	.db #0x00	; 0
	.db #0x00	; 0
	.db #0x00	; 0
	.db #0x00	; 0
	.db #0x0b	; 11
	.db #0x0b	; 11
	.db #0x00	; 0
	.db #0x00	; 0
	.db #0x0b	; 11
	.db #0x0b	; 11
	.db #0x00	; 0
	.db #0x00	; 0
	.db #0x00	; 0
	.db #0x0b	; 11
	.db #0x0b	; 11
	.db #0x00	; 0
	.db #0x06	; 6
	.db #0x03	; 3
	.db #0x09	; 9
	.db #0x0b	; 11
	.db #0x0b	; 11
	.db #0x00	; 0
	.db #0x00	; 0
	.db #0x00	; 0
	.db #0x00	; 0
	.db #0x00	; 0
	.db #0x00	; 0
	.db #0x13	; 19
	.db #0x15	; 21
	.db #0x16	; 22
	.db #0x14	; 20
	.db #0x00	; 0
	.db #0x00	; 0
	.db #0x00	; 0
	.db #0x13	; 19
	.db #0x15	; 21
	.db #0x16	; 22
	.db #0x14	; 20
	.db #0x06	; 6
	.db #0x03	; 3
	.db #0x09	; 9
	.db #0x00	; 0
	.db #0x0b	; 11
	.db #0x0b	; 11
	.db #0x18	; 24
	.db #0x00	; 0
	.db #0x00	; 0
	.db #0x18	; 24
	.db #0x0b	; 11
	.db #0x0b	; 11
	.db #0x00	; 0
	.db #0x00	; 0
	.db #0x00	; 0
	.db #0x00	; 0
	.db #0x00	; 0
	.db #0x00	; 0
	.db #0x0b	; 11
	.db #0x0b	; 11
	.db #0x00	; 0
	.db #0x00	; 0
	.db #0x00	; 0
	.db #0x00	; 0
	.db #0x17	; 23
	.db #0x0b	; 11
	.db #0x0b	; 11
	.db #0x00	; 0
	.db #0x00	; 0
	.db #0x00	; 0
	.db #0x00	; 0
	.db #0x0b	; 11
	.db #0x0b	; 11
	.db #0x00	; 0
	.db #0x00	; 0
	.db #0x00	; 0
	.db #0x00	; 0
	.db #0x0b	; 11
	.db #0x0b	; 11
	.db #0x00	; 0
	.db #0x00	; 0
	.db #0x00	; 0
	.db #0x0b	; 11
	.db #0x0b	; 11
	.db #0x00	; 0
	.db #0x00	; 0
	.db #0x00	; 0
	.db #0x00	; 0
	.db #0x00	; 0
	.db #0x00	; 0
	.db #0x00	; 0
	.db #0x0b	; 11
	.db #0x0b	; 11
	.db #0x00	; 0
	.db #0x00	; 0
	.db #0x00	; 0
	.db #0x00	; 0
	.db #0x00	; 0
	.db #0x00	; 0
	.db #0x00	; 0
	.db #0x00	; 0
	.db #0x00	; 0
	.db #0x00	; 0
	.db #0x00	; 0
	.db #0x00	; 0
	.db #0x00	; 0
	.db #0x0b	; 11
	.db #0x0b	; 11
	.db #0x00	; 0
	.db #0x06	; 6
	.db #0x03	; 3
	.db #0x09	; 9
	.db #0x0b	; 11
	.db #0x0b	; 11
	.db #0x00	; 0
	.db #0x00	; 0
	.db #0x00	; 0
	.db #0x00	; 0
	.db #0x00	; 0
	.db #0x0b	; 11
	.db #0x0b	; 11
	.db #0x00	; 0
	.db #0x00	; 0
	.db #0x00	; 0
	.db #0x00	; 0
	.db #0x19	; 25
	.db #0x1a	; 26
	.db #0x1a	; 26
	.db #0x1b	; 27
	.db #0x00	; 0
	.db #0x0b	; 11
	.db #0x0b	; 11
	.db #0x00	; 0
	.db #0x00	; 0
	.db #0x00	; 0
	.db #0x0b	; 11
	.db #0x0b	; 11
	.db #0x00	; 0
	.db #0x00	; 0
	.db #0x00	; 0
	.db #0x00	; 0
	.db #0x0b	; 11
	.db #0x0b	; 11
	.db #0x00	; 0
	.db #0x00	; 0
	.db #0x00	; 0
	.db #0x00	; 0
	.db #0x04	; 4
	.db #0x01	; 1
	.db #0x07	; 7
	.db #0x0b	; 11
	.db #0x0b	; 11
	.db #0x00	; 0
	.db #0x17	; 23
	.db #0x00	; 0
	.db #0x00	; 0
	.db #0x00	; 0
	.db #0x0b	; 11
	.db #0x0b	; 11
	.db #0x00	; 0
	.db #0x00	; 0
	.db #0x00	; 0
	.db #0x00	; 0
	.db #0x00	; 0
	.db #0x0b	; 11
	.db #0x0b	; 11
	.db #0x00	; 0
	.db #0x00	; 0
	.db #0x00	; 0
	.db #0x00	; 0
	.db #0x0b	; 11
	.db #0x0b	; 11
	.db #0x00	; 0
	.db #0x00	; 0
	.db #0x00	; 0
	.db #0x00	; 0
	.db #0x00	; 0
	.db #0x00	; 0
	.db #0x0b	; 11
	.db #0x0b	; 11
	.db #0x00	; 0
	.db #0x00	; 0
	.db #0x00	; 0
	.db #0x00	; 0
	.db #0x18	; 24
	.db #0x0b	; 11
	.db #0x0b	; 11
	.db #0x00	; 0
	.db #0x00	; 0
	.db #0x00	; 0
	.db #0x00	; 0
	.db #0x1a	; 26
	.db #0x1a	; 26
	.db #0x1b	; 27
	.db #0x00	; 0
	.db #0x17	; 23
	.db #0x1c	; 28
	.db #0x1a	; 26
	.db #0x1a	; 26
	.db #0x1a	; 26
	.db #0x1d	; 29
	.db #0x1c	; 28
	.db #0x1a	; 26
	.db #0x1a	; 26
	.db #0x1a	; 26
	.db #0x1b	; 27
	.db #0x04	; 4
	.db #0x01	; 1
	.db #0x07	; 7
	.db #0x00	; 0
	.db #0x00	; 0
	.db #0x0b	; 11
	.db #0x0b	; 11
	.db #0x00	; 0
	.db #0x00	; 0
	.db #0x00	; 0
	.db #0x00	; 0
	.db #0x00	; 0
	.db #0x00	; 0
	.db #0x00	; 0
	.db #0x00	; 0
	.db #0x00	; 0
	.db #0x00	; 0
	.db #0x00	; 0
	.db #0x00	; 0
	.db #0x00	; 0
	.db #0x0b	; 11
	.db #0x0b	; 11
	.db #0x00	; 0
	.db #0x00	; 0
	.db #0x00	; 0
	.db #0x00	; 0
	.db #0x0b	; 11
	.db #0x0b	; 11
	.db #0x00	; 0
	.db #0x00	; 0
	.db #0x00	; 0
	.db #0x00	; 0
	.db #0x00	; 0
	.db #0x0b	; 11
	.db #0x0b	; 11
	.db #0x00	; 0
	.db #0x00	; 0
	.db #0x00	; 0
	.db #0x00	; 0
	.db #0x17	; 23
	.db #0x0b	; 11
	.db #0x0b	; 11
	.db #0x00	; 0
	.db #0x00	; 0
	.db #0x0b	; 11
	.db #0x0b	; 11
	.db #0x00	; 0
	.db #0x00	; 0
	.db #0x00	; 0
	.db #0x0b	; 11
	.db #0x0b	; 11
	.db #0x00	; 0
	.db #0x00	; 0
	.db #0x00	; 0
	.db #0x00	; 0
	.db #0x0b	; 11
	.db #0x0b	; 11
	.db #0x00	; 0
	.db #0x00	; 0
	.db #0x00	; 0
	.db #0x00	; 0
	.db #0x05	; 5
	.db #0x02	; 2
	.db #0x08	; 8
	.db #0x0b	; 11
	.db #0x0b	; 11
	.db #0x00	; 0
	.db #0x18	; 24
	.db #0x00	; 0
	.db #0x00	; 0
	.db #0x00	; 0
	.db #0x0b	; 11
	.db #0x0b	; 11
	.db #0x00	; 0
	.db #0x00	; 0
	.db #0x00	; 0
	.db #0x00	; 0
	.db #0x0c	; 12
	.db #0x15	; 21
	.db #0x16	; 22
	.db #0x12	; 18
	.db #0x00	; 0
	.db #0x00	; 0
	.db #0x0c	; 12
	.db #0x15	; 21
	.db #0x16	; 22
	.db #0x12	; 18
	.db #0x00	; 0
	.db #0x00	; 0
	.db #0x00	; 0
	.db #0x00	; 0
	.db #0x00	; 0
	.db #0x0b	; 11
	.db #0x0b	; 11
	.db #0x00	; 0
	.db #0x00	; 0
	.db #0x17	; 23
	.db #0x00	; 0
	.db #0x00	; 0
	.db #0x0b	; 11
	.db #0x0b	; 11
	.db #0x00	; 0
	.db #0x00	; 0
	.db #0x00	; 0
	.db #0x17	; 23
	.db #0x0b	; 11
	.db #0x0b	; 11
	.db #0x00	; 0
	.db #0x00	; 0
	.db #0x18	; 24
	.db #0x00	; 0
	.db #0x0b	; 11
	.db #0x0b	; 11
	.db #0x00	; 0
	.db #0x00	; 0
	.db #0x00	; 0
	.db #0x0b	; 11
	.db #0x0b	; 11
	.db #0x00	; 0
	.db #0x00	; 0
	.db #0x05	; 5
	.db #0x02	; 2
	.db #0x08	; 8
	.db #0x00	; 0
	.db #0x00	; 0
	.db #0x0b	; 11
	.db #0x0b	; 11
	.db #0x00	; 0
	.db #0x00	; 0
	.db #0x00	; 0
	.db #0x00	; 0
	.db #0x00	; 0
	.db #0x00	; 0
	.db #0x00	; 0
	.db #0x00	; 0
	.db #0x00	; 0
	.db #0x00	; 0
	.db #0x00	; 0
	.db #0x00	; 0
	.db #0x00	; 0
	.db #0x0b	; 11
	.db #0x0b	; 11
	.db #0x00	; 0
	.db #0x00	; 0
	.db #0x00	; 0
	.db #0x00	; 0
	.db #0x0b	; 11
	.db #0x0b	; 11
	.db #0x00	; 0
	.db #0x04	; 4
	.db #0x01	; 1
	.db #0x07	; 7
	.db #0x00	; 0
	.db #0x0b	; 11
	.db #0x0b	; 11
	.db #0x00	; 0
	.db #0x00	; 0
	.db #0x00	; 0
	.db #0x00	; 0
	.db #0x18	; 24
	.db #0x0b	; 11
	.db #0x0b	; 11
	.db #0x00	; 0
	.db #0x00	; 0
	.db #0x0b	; 11
	.db #0x0b	; 11
	.db #0x00	; 0
	.db #0x00	; 0
	.db #0x13	; 19
	.db #0x15	; 21
	.db #0x16	; 22
	.db #0x14	; 20
	.db #0x00	; 0
	.db #0x00	; 0
	.db #0x13	; 19
	.db #0x15	; 21
	.db #0x16	; 22
	.db #0x14	; 20
	.db #0x00	; 0
	.db #0x00	; 0
	.db #0x00	; 0
	.db #0x06	; 6
	.db #0x03	; 3
	.db #0x09	; 9
	.db #0x0b	; 11
	.db #0x0b	; 11
	.db #0x00	; 0
	.db #0x00	; 0
	.db #0x00	; 0
	.db #0x00	; 0
	.db #0x00	; 0
	.db #0x0b	; 11
	.db #0x0b	; 11
	.db #0x00	; 0
	.db #0x00	; 0
	.db #0x00	; 0
	.db #0x00	; 0
	.db #0x00	; 0
	.db #0x0b	; 11
	.db #0x0b	; 11
	.db #0x00	; 0
	.db #0x00	; 0
	.db #0x00	; 0
	.db #0x00	; 0
	.db #0x0b	; 11
	.db #0x0b	; 11
	.db #0x04	; 4
	.db #0x01	; 1
	.db #0x07	; 7
	.db #0x00	; 0
	.db #0x00	; 0
	.db #0x00	; 0
	.db #0x0b	; 11
	.db #0x0b	; 11
	.db #0x00	; 0
	.db #0x00	; 0
	.db #0x18	; 24
	.db #0x00	; 0
	.db #0x00	; 0
	.db #0x0b	; 11
	.db #0x0b	; 11
	.db #0x00	; 0
	.db #0x00	; 0
	.db #0x00	; 0
	.db #0x18	; 24
	.db #0x0b	; 11
	.db #0x0b	; 11
	.db #0x00	; 0
	.db #0x00	; 0
	.db #0x00	; 0
	.db #0x00	; 0
	.db #0x0b	; 11
	.db #0x0b	; 11
	.db #0x00	; 0
	.db #0x00	; 0
	.db #0x13	; 19
	.db #0x15	; 21
	.db #0x16	; 22
	.db #0x14	; 20
	.db #0x00	; 0
	.db #0x06	; 6
	.db #0x03	; 3
	.db #0x09	; 9
	.db #0x00	; 0
	.db #0x13	; 19
	.db #0x15	; 21
	.db #0x16	; 22
	.db #0x14	; 20
	.db #0x00	; 0
	.db #0x00	; 0
	.db #0x00	; 0
	.db #0x00	; 0
	.db #0x00	; 0
	.db #0x00	; 0
	.db #0x00	; 0
	.db #0x00	; 0
	.db #0x00	; 0
	.db #0x00	; 0
	.db #0x00	; 0
	.db #0x00	; 0
	.db #0x0b	; 11
	.db #0x0b	; 11
	.db #0x00	; 0
	.db #0x00	; 0
	.db #0x00	; 0
	.db #0x00	; 0
	.db #0x0b	; 11
	.db #0x0b	; 11
	.db #0x00	; 0
	.db #0x05	; 5
	.db #0x02	; 2
	.db #0x08	; 8
	.db #0x00	; 0
	.db #0x0b	; 11
	.db #0x0b	; 11
	.db #0x00	; 0
	.db #0x00	; 0
	.db #0x17	; 23
	.db #0x00	; 0
	.db #0x00	; 0
	.db #0x0b	; 11
	.db #0x0b	; 11
	.db #0x00	; 0
	.db #0x19	; 25
	.db #0x1a	; 26
	.db #0x1a	; 26
	.db #0x1a	; 26
	.db #0x1a	; 26
	.db #0x1d	; 29
	.db #0x0b	; 11
	.db #0x0b	; 11
	.db #0x00	; 0
	.db #0x00	; 0
	.db #0x00	; 0
	.db #0x00	; 0
	.db #0x0b	; 11
	.db #0x0b	; 11
	.db #0x00	; 0
	.db #0x00	; 0
	.db #0x00	; 0
	.db #0x00	; 0
	.db #0x00	; 0
	.db #0x00	; 0
	.db #0x00	; 0
	.db #0x0b	; 11
	.db #0x0b	; 11
	.db #0x00	; 0
	.db #0x00	; 0
	.db #0x00	; 0
	.db #0x00	; 0
	.db #0x00	; 0
	.db #0x0b	; 11
	.db #0x0b	; 11
	.db #0x00	; 0
	.db #0x00	; 0
	.db #0x00	; 0
	.db #0x00	; 0
	.db #0x00	; 0
	.db #0x0b	; 11
	.db #0x0b	; 11
	.db #0x00	; 0
	.db #0x00	; 0
	.db #0x00	; 0
	.db #0x00	; 0
	.db #0x0b	; 11
	.db #0x0b	; 11
	.db #0x05	; 5
	.db #0x02	; 2
	.db #0x08	; 8
	.db #0x00	; 0
	.db #0x00	; 0
	.db #0x00	; 0
	.db #0x0b	; 11
	.db #0x0b	; 11
	.db #0x17	; 23
	.db #0x00	; 0
	.db #0x00	; 0
	.db #0x00	; 0
	.db #0x00	; 0
	.db #0x0b	; 11
	.db #0x0b	; 11
	.db #0x00	; 0
	.db #0x00	; 0
	.db #0x00	; 0
	.db #0x00	; 0
	.db #0x0b	; 11
	.db #0x0b	; 11
	.db #0x00	; 0
	.db #0x00	; 0
	.db #0x00	; 0
	.db #0x00	; 0
	.db #0x0b	; 11
	.db #0x0b	; 11
	.db #0x00	; 0
	.db #0x00	; 0
	.db #0x00	; 0
	.db #0x0b	; 11
	.db #0x0b	; 11
	.db #0x00	; 0
	.db #0x00	; 0
	.db #0x00	; 0
	.db #0x00	; 0
	.db #0x00	; 0
	.db #0x00	; 0
	.db #0x00	; 0
	.db #0x0b	; 11
	.db #0x0b	; 11
	.db #0x00	; 0
	.db #0x00	; 0
	.db #0x00	; 0
	.db #0x00	; 0
	.db #0x00	; 0
	.db #0x00	; 0
	.db #0x00	; 0
	.db #0x00	; 0
	.db #0x00	; 0
	.db #0x00	; 0
	.db #0x00	; 0
	.db #0x00	; 0
	.db #0x00	; 0
	.db #0x0b	; 11
	.db #0x0b	; 11
	.db #0x00	; 0
	.db #0x00	; 0
	.db #0x00	; 0
	.db #0x00	; 0
	.db #0x0b	; 11
	.db #0x0b	; 11
	.db #0x00	; 0
	.db #0x06	; 6
	.db #0x03	; 3
	.db #0x09	; 9
	.db #0x00	; 0
	.db #0x0b	; 11
	.db #0x0b	; 11
	.db #0x00	; 0
	.db #0x00	; 0
	.db #0x18	; 24
	.db #0x00	; 0
	.db #0x00	; 0
	.db #0x0b	; 11
	.db #0x0b	; 11
	.db #0x00	; 0
	.db #0x00	; 0
	.db #0x0b	; 11
	.db #0x0b	; 11
	.db #0x00	; 0
	.db #0x00	; 0
	.db #0x00	; 0
	.db #0x0b	; 11
	.db #0x0b	; 11
	.db #0x00	; 0
	.db #0x00	; 0
	.db #0x00	; 0
	.db #0x17	; 23
	.db #0x0b	; 11
	.db #0x0b	; 11
	.db #0x00	; 0
	.db #0x00	; 0
	.db #0x00	; 0
	.db #0x00	; 0
	.db #0x00	; 0
	.db #0x00	; 0
	.db #0x00	; 0
	.db #0x0b	; 11
	.db #0x0b	; 11
	.db #0x00	; 0
	.db #0x00	; 0
	.db #0x00	; 0
	.db #0x17	; 23
	.db #0x00	; 0
	.db #0x0b	; 11
	.db #0x0b	; 11
	.db #0x00	; 0
	.db #0x04	; 4
	.db #0x01	; 1
	.db #0x07	; 7
	.db #0x00	; 0
	.db #0x0b	; 11
	.db #0x0b	; 11
	.db #0x00	; 0
	.db #0x00	; 0
	.db #0x00	; 0
	.db #0x00	; 0
	.db #0x0b	; 11
	.db #0x0b	; 11
	.db #0x06	; 6
	.db #0x03	; 3
	.db #0x09	; 9
	.db #0x00	; 0
	.db #0x00	; 0
	.db #0x00	; 0
	.db #0x0b	; 11
	.db #0x0b	; 11
	.db #0x18	; 24
	.db #0x00	; 0
	.db #0x00	; 0
	.db #0x00	; 0
	.db #0x00	; 0
	.db #0x0b	; 11
	.db #0x0b	; 11
	.db #0x00	; 0
	.db #0x00	; 0
	.db #0x19	; 25
	.db #0x1a	; 26
	.db #0x1a	; 26
	.db #0x0b	; 11
	.db #0x00	; 0
	.db #0x00	; 0
	.db #0x00	; 0
	.db #0x00	; 0
	.db #0x0b	; 11
	.db #0x0b	; 11
	.db #0x00	; 0
	.db #0x00	; 0
	.db #0x00	; 0
	.db #0x0b	; 11
	.db #0x0b	; 11
	.db #0x00	; 0
	.db #0x00	; 0
	.db #0x00	; 0
	.db #0x00	; 0
	.db #0x00	; 0
	.db #0x00	; 0
	.db #0x00	; 0
	.db #0x0b	; 11
	.db #0x0b	; 11
	.db #0x00	; 0
	.db #0x00	; 0
	.db #0x00	; 0
	.db #0x00	; 0
	.db #0x00	; 0
	.db #0x00	; 0
	.db #0x00	; 0
	.db #0x00	; 0
	.db #0x00	; 0
	.db #0x00	; 0
	.db #0x00	; 0
	.db #0x00	; 0
	.db #0x00	; 0
	.db #0x0b	; 11
	.db #0x0b	; 11
	.db #0x00	; 0
	.db #0x00	; 0
	.db #0x17	; 23
	.db #0x00	; 0
	.db #0x0b	; 11
	.db #0x0b	; 11
	.db #0x00	; 0
	.db #0x00	; 0
	.db #0x00	; 0
	.db #0x00	; 0
	.db #0x00	; 0
	.db #0x0b	; 11
	.db #0x0b	; 11
	.db #0x17	; 23
	.db #0x00	; 0
	.db #0x00	; 0
	.db #0x00	; 0
	.db #0x00	; 0
	.db #0x0b	; 11
	.db #0x0b	; 11
	.db #0x00	; 0
	.db #0x00	; 0
	.db #0x0b	; 11
	.db #0x0b	; 11
	.db #0x00	; 0
	.db #0x00	; 0
	.db #0x00	; 0
	.db #0x0b	; 11
	.db #0x0b	; 11
	.db #0x00	; 0
	.db #0x00	; 0
	.db #0x00	; 0
	.db #0x18	; 24
	.db #0x0b	; 11
	.db #0x0b	; 11
	.db #0x00	; 0
	.db #0x00	; 0
	.db #0x00	; 0
	.db #0x00	; 0
	.db #0x00	; 0
	.db #0x00	; 0
	.db #0x00	; 0
	.db #0x0b	; 11
	.db #0x0b	; 11
	.db #0x00	; 0
	.db #0x00	; 0
	.db #0x00	; 0
	.db #0x18	; 24
	.db #0x00	; 0
	.db #0x0b	; 11
	.db #0x0b	; 11
	.db #0x00	; 0
	.db #0x05	; 5
	.db #0x02	; 2
	.db #0x08	; 8
	.db #0x00	; 0
	.db #0x0b	; 11
	.db #0x0b	; 11
	.db #0x00	; 0
	.db #0x00	; 0
	.db #0x00	; 0
	.db #0x00	; 0
	.db #0x0b	; 11
	.db #0x0b	; 11
	.db #0x00	; 0
	.db #0x00	; 0
	.db #0x00	; 0
	.db #0x00	; 0
	.db #0x00	; 0
	.db #0x00	; 0
	.db #0x0b	; 11
	.db #0x0b	; 11
	.db #0x00	; 0
	.db #0x00	; 0
	.db #0x00	; 0
	.db #0x00	; 0
	.db #0x19	; 25
	.db #0x1a	; 26
	.db #0x1a	; 26
	.db #0x00	; 0
	.db #0x00	; 0
	.db #0x00	; 0
	.db #0x00	; 0
	.db #0x0b	; 11
	.db #0x0b	; 11
	.db #0x00	; 0
	.db #0x00	; 0
	.db #0x00	; 0
	.db #0x00	; 0
	.db #0x0b	; 11
	.db #0x0b	; 11
	.db #0x00	; 0
	.db #0x00	; 0
	.db #0x1c	; 28
	.db #0x1a	; 26
	.db #0x1a	; 26
	.db #0x1a	; 26
	.db #0x1a	; 26
	.db #0x1d	; 29
	.db #0x00	; 0
	.db #0x00	; 0
	.db #0x00	; 0
	.db #0x00	; 0
	.db #0x0b	; 11
	.db #0x0b	; 11
	.db #0x00	; 0
	.db #0x00	; 0
	.db #0x00	; 0
	.db #0x00	; 0
	.db #0x00	; 0
	.db #0x00	; 0
	.db #0x00	; 0
	.db #0x00	; 0
	.db #0x00	; 0
	.db #0x00	; 0
	.db #0x00	; 0
	.db #0x00	; 0
	.db #0x00	; 0
	.db #0x0b	; 11
	.db #0x0b	; 11
	.db #0x00	; 0
	.db #0x00	; 0
	.db #0x18	; 24
	.db #0x00	; 0
	.db #0x0b	; 11
	.db #0x0b	; 11
	.db #0x00	; 0
	.db #0x00	; 0
	.db #0x00	; 0
	.db #0x00	; 0
	.db #0x00	; 0
	.db #0x0b	; 11
	.db #0x0b	; 11
	.db #0x18	; 24
	.db #0x00	; 0
	.db #0x00	; 0
	.db #0x19	; 25
	.db #0x1a	; 26
	.db #0x1a	; 26
	.db #0x1a	; 26
	.db #0x1b	; 27
	.db #0x00	; 0
	.db #0x0b	; 11
	.db #0x0b	; 11
	.db #0x00	; 0
	.db #0x00	; 0
	.db #0x00	; 0
	.db #0x0b	; 11
	.db #0x0b	; 11
	.db #0x1c	; 28
	.db #0x1a	; 26
	.db #0x1a	; 26
	.db #0x1a	; 26
	.db #0x1a	; 26
	.db #0x1a	; 26
	.db #0x1d	; 29
	.db #0x00	; 0
	.db #0x00	; 0
	.db #0x00	; 0
	.db #0x00	; 0
	.db #0x00	; 0
	.db #0x00	; 0
	.db #0x0b	; 11
	.db #0x0b	; 11
	.db #0x00	; 0
	.db #0x00	; 0
	.db #0x00	; 0
	.db #0x00	; 0
	.db #0x00	; 0
	.db #0x0b	; 11
	.db #0x0b	; 11
	.db #0x00	; 0
	.db #0x06	; 6
	.db #0x03	; 3
	.db #0x09	; 9
	.db #0x00	; 0
	.db #0x0b	; 11
	.db #0x0b	; 11
	.db #0x00	; 0
	.db #0x00	; 0
	.db #0x00	; 0
	.db #0x00	; 0
	.db #0x0b	; 11
	.db #0x0b	; 11
	.db #0x00	; 0
	.db #0x00	; 0
	.db #0x00	; 0
	.db #0x00	; 0
	.db #0x00	; 0
	.db #0x13	; 19
	.db #0x15	; 21
	.db #0x16	; 22
	.db #0x14	; 20
	.db #0x00	; 0
	.db #0x00	; 0
	.db #0x00	; 0
	.db #0x13	; 19
	.db #0x15	; 21
	.db #0x16	; 22
	.db #0x14	; 20
	.db #0x00	; 0
	.db #0x00	; 0
	.db #0x00	; 0
	.db #0x0b	; 11
	.db #0x0b	; 11
	.db #0x00	; 0
	.db #0x19	; 25
	.db #0x1a	; 26
	.db #0x1a	; 26
	.db #0x1a	; 26
	.db #0x1a	; 26
	.db #0x1b	; 27
	.db #0x00	; 0
	.db #0x00	; 0
	.db #0x0b	; 11
	.db #0x0b	; 11
	.db #0x00	; 0
	.db #0x00	; 0
	.db #0x00	; 0
	.db #0x00	; 0
	.db #0x00	; 0
	.db #0x00	; 0
	.db #0x00	; 0
	.db #0x0b	; 11
	.db #0x0b	; 11
	.db #0x00	; 0
	.db #0x00	; 0
	.db #0x00	; 0
	.db #0x00	; 0
	.db #0x00	; 0
	.db #0x00	; 0
	.db #0x00	; 0
	.db #0x00	; 0
	.db #0x00	; 0
	.db #0x00	; 0
	.db #0x00	; 0
	.db #0x00	; 0
	.db #0x00	; 0
	.db #0x0b	; 11
	.db #0x0b	; 11
	.db #0x00	; 0
	.db #0x00	; 0
	.db #0x00	; 0
	.db #0x0c	; 12
	.db #0x15	; 21
	.db #0x16	; 22
	.db #0x12	; 18
	.db #0x00	; 0
	.db #0x00	; 0
	.db #0x00	; 0
	.db #0x0c	; 12
	.db #0x15	; 21
	.db #0x16	; 22
	.db #0x12	; 18
	.db #0x00	; 0
	.db #0x00	; 0
	.db #0x00	; 0
	.db #0x00	; 0
	.db #0x0b	; 11
	.db #0x0b	; 11
	.db #0x00	; 0
	.db #0x00	; 0
	.db #0x0b	; 11
	.db #0x0b	; 11
	.db #0x00	; 0
	.db #0x00	; 0
	.db #0x00	; 0
	.db #0x0b	; 11
	.db #0x0b	; 11
	.db #0x00	; 0
	.db #0x00	; 0
	.db #0x00	; 0
	.db #0x00	; 0
	.db #0x0b	; 11
	.db #0x0b	; 11
	.db #0x00	; 0
	.db #0x00	; 0
	.db #0x00	; 0
	.db #0x00	; 0
	.db #0x00	; 0
	.db #0x00	; 0
	.db #0x00	; 0
	.db #0x0b	; 11
	.db #0x0b	; 11
	.db #0x00	; 0
	.db #0x00	; 0
	.db #0x00	; 0
	.db #0x00	; 0
	.db #0x00	; 0
	.db #0x0b	; 11
	.db #0x0b	; 11
	.db #0x00	; 0
	.db #0x00	; 0
	.db #0x00	; 0
	.db #0x00	; 0
	.db #0x00	; 0
	.db #0x0b	; 11
	.db #0x0b	; 11
	.db #0x00	; 0
	.db #0x00	; 0
	.db #0x00	; 0
	.db #0x00	; 0
	.db #0x0b	; 11
	.db #0x0b	; 11
	.db #0x00	; 0
	.db #0x00	; 0
	.db #0x00	; 0
	.db #0x00	; 0
	.db #0x00	; 0
	.db #0x19	; 25
	.db #0x1a	; 26
	.db #0x1a	; 26
	.db #0x1a	; 26
	.db #0x1a	; 26
	.db #0x1b	; 27
	.db #0x00	; 0
	.db #0x00	; 0
	.db #0x0b	; 11
	.db #0x0b	; 11
	.db #0x00	; 0
	.db #0x00	; 0
	.db #0x00	; 0
	.db #0x00	; 0
	.db #0x0b	; 11
	.db #0x0b	; 11
	.db #0x00	; 0
	.db #0x00	; 0
	.db #0x00	; 0
	.db #0x00	; 0
	.db #0x0b	; 11
	.db #0x0b	; 11
	.db #0x00	; 0
	.db #0x00	; 0
	.db #0x00	; 0
	.db #0x0b	; 11
	.db #0x0b	; 11
	.db #0x00	; 0
	.db #0x00	; 0
	.db #0x00	; 0
	.db #0x00	; 0
	.db #0x19	; 25
	.db #0x1a	; 26
	.db #0x1a	; 26
	.db #0x1a	; 26
	.db #0x1a	; 26
	.db #0x1b	; 27
	.db #0x00	; 0
	.db #0x00	; 0
	.db #0x00	; 0
	.db #0x00	; 0
	.db #0x00	; 0
	.db #0x00	; 0
	.db #0x00	; 0
	.db #0x00	; 0
	.db #0x00	; 0
	.db #0x00	; 0
	.db #0x00	; 0
	.db #0x00	; 0
	.db #0x0b	; 11
	.db #0x0b	; 11
	.db #0x00	; 0
	.db #0x00	; 0
	.db #0x00	; 0
	.db #0x00	; 0
	.db #0x0b	; 11
	.db #0x0b	; 11
	.db #0x00	; 0
	.db #0x00	; 0
	.db #0x00	; 0
	.db #0x00	; 0
	.db #0x19	; 25
	.db #0x1a	; 26
	.db #0x1a	; 26
	.db #0x1a	; 26
	.db #0x1b	; 27
	.db #0x00	; 0
	.db #0x00	; 0
	.db #0x00	; 0
	.db #0x0b	; 11
	.db #0x0b	; 11
	.db #0x00	; 0
	.db #0x19	; 25
	.db #0x1a	; 26
	.db #0x1a	; 26
	.db #0x1a	; 26
	.db #0x1a	; 26
	.db #0x1a	; 26
	.db #0x1a	; 26
	.db #0x1a	; 26
	.db #0x1b	; 27
	.db #0x00	; 0
	.db #0x00	; 0
	.db #0x00	; 0
	.db #0x1a	; 26
	.db #0x1a	; 26
	.db #0x1a	; 26
	.db #0x1a	; 26
	.db #0x1a	; 26
	.db #0x1b	; 27
	.db #0x00	; 0
	.db #0x00	; 0
	.db #0x00	; 0
	.db #0x0b	; 11
	.db #0x0b	; 11
	.db #0x00	; 0
	.db #0x00	; 0
	.db #0x00	; 0
	.db #0x19	; 25
	.db #0x1a	; 26
	.db #0x1a	; 26
	.db #0x1a	; 26
	.db #0x1d	; 29
	.db #0x00	; 0
	.db #0x00	; 0
	.db #0x00	; 0
	.db #0x00	; 0
	.db #0x0b	; 11
	.db #0x0b	; 11
	.db #0x19	; 25
	.db #0x1a	; 26
	.db #0x1a	; 26
	.db #0x1a	; 26
	.db #0x1a	; 26
	.db #0x1a	; 26
	.db #0x1a	; 26
	.db #0x1a	; 26
	.db #0x1a	; 26
	.db #0x1d	; 29
	.db #0x00	; 0
	.db #0x00	; 0
	.db #0x0b	; 11
	.db #0x0b	; 11
	.db #0x00	; 0
	.db #0x00	; 0
	.db #0x00	; 0
	.db #0x00	; 0
	.db #0x00	; 0
	.db #0x0b	; 11
	.db #0x0b	; 11
	.db #0x00	; 0
	.db #0x00	; 0
	.db #0x00	; 0
	.db #0x13	; 19
	.db #0x15	; 21
	.db #0x16	; 22
	.db #0x14	; 20
	.db #0x00	; 0
	.db #0x00	; 0
	.db #0x13	; 19
	.db #0x15	; 21
	.db #0x16	; 22
	.db #0x14	; 20
	.db #0x00	; 0
	.db #0x00	; 0
	.db #0x0b	; 11
	.db #0x0b	; 11
	.db #0x00	; 0
	.db #0x00	; 0
	.db #0x00	; 0
	.db #0x00	; 0
	.db #0x00	; 0
	.db #0x00	; 0
	.db #0x00	; 0
	.db #0x0b	; 11
	.db #0x0b	; 11
	.db #0x00	; 0
	.db #0x00	; 0
	.db #0x00	; 0
	.db #0x00	; 0
	.db #0x00	; 0
	.db #0x00	; 0
	.db #0x00	; 0
	.db #0x00	; 0
	.db #0x00	; 0
	.db #0x00	; 0
	.db #0x00	; 0
	.db #0x00	; 0
	.db #0x00	; 0
	.db #0x0b	; 11
	.db #0x0b	; 11
	.db #0x00	; 0
	.db #0x00	; 0
	.db #0x00	; 0
	.db #0x19	; 25
	.db #0x1a	; 26
	.db #0x1a	; 26
	.db #0x1a	; 26
	.db #0x1b	; 27
	.db #0x00	; 0
	.db #0x00	; 0
	.db #0x00	; 0
	.db #0x0b	; 11
	.db #0x0b	; 11
	.db #0x00	; 0
	.db #0x00	; 0
	.db #0x00	; 0
	.db #0x00	; 0
	.db #0x00	; 0
	.db #0x0b	; 11
	.db #0x0b	; 11
	.db #0x00	; 0
	.db #0x00	; 0
	.db #0x0b	; 11
	.db #0x0b	; 11
	.db #0x00	; 0
	.db #0x17	; 23
	.db #0x00	; 0
	.db #0x0b	; 11
	.db #0x0b	; 11
	.db #0x00	; 0
	.db #0x00	; 0
	.db #0x00	; 0
	.db #0x00	; 0
	.db #0x0b	; 11
	.db #0x0b	; 11
	.db #0x00	; 0
	.db #0x00	; 0
	.db #0x00	; 0
	.db #0x00	; 0
	.db #0x00	; 0
	.db #0x19	; 25
	.db #0x1a	; 26
	.db #0x1a	; 26
	.db #0x1a	; 26
	.db #0x1a	; 26
	.db #0x1b	; 27
	.db #0x17	; 23
	.db #0x00	; 0
	.db #0x00	; 0
	.db #0x0b	; 11
	.db #0x0b	; 11
	.db #0x00	; 0
	.db #0x00	; 0
	.db #0x00	; 0
	.db #0x00	; 0
	.db #0x00	; 0
	.db #0x0b	; 11
	.db #0x0b	; 11
	.db #0x00	; 0
	.db #0x00	; 0
	.db #0x17	; 23
	.db #0x00	; 0
	.db #0x0b	; 11
	.db #0x0b	; 11
	.db #0x00	; 0
	.db #0x00	; 0
	.db #0x00	; 0
	.db #0x00	; 0
	.db #0x17	; 23
	.db #0x00	; 0
	.db #0x0b	; 11
	.db #0x0b	; 11
	.db #0x00	; 0
	.db #0x00	; 0
	.db #0x00	; 0
	.db #0x00	; 0
	.db #0x00	; 0
	.db #0x0b	; 11
	.db #0x0b	; 11
	.db #0x17	; 23
	.db #0x00	; 0
	.db #0x00	; 0
	.db #0x00	; 0
	.db #0x0b	; 11
	.db #0x0b	; 11
	.db #0x17	; 23
	.db #0x00	; 0
	.db #0x00	; 0
	.db #0x00	; 0
	.db #0x0b	; 11
	.db #0x0b	; 11
	.db #0x00	; 0
	.db #0x17	; 23
	.db #0x00	; 0
	.db #0x0b	; 11
	.db #0x0b	; 11
	.db #0x00	; 0
	.db #0x00	; 0
	.db #0x00	; 0
	.db #0x00	; 0
	.db #0x17	; 23
	.db #0x00	; 0
	.db #0x00	; 0
	.db #0x0b	; 11
	.db #0x0b	; 11
	.db #0x00	; 0
	.db #0x00	; 0
	.db #0x00	; 0
	.db #0x00	; 0
	.db #0x00	; 0
	.db #0x00	; 0
	.db #0x00	; 0
	.db #0x00	; 0
	.db #0x00	; 0
	.db #0x00	; 0
	.db #0x00	; 0
	.db #0x00	; 0
	.db #0x00	; 0
	.db #0x0b	; 11
	.db #0x0b	; 11
	.db #0x00	; 0
	.db #0x00	; 0
	.db #0x00	; 0
	.db #0x00	; 0
	.db #0x0b	; 11
	.db #0x0b	; 11
	.db #0x00	; 0
	.db #0x00	; 0
	.db #0x00	; 0
	.db #0x00	; 0
	.db #0x00	; 0
	.db #0x0b	; 11
	.db #0x0b	; 11
	.db #0x00	; 0
	.db #0x00	; 0
	.db #0x00	; 0
	.db #0x00	; 0
	.db #0x00	; 0
	.db #0x0b	; 11
	.db #0x0b	; 11
	.db #0x00	; 0
	.db #0x00	; 0
	.db #0x0b	; 11
	.db #0x0b	; 11
	.db #0x00	; 0
	.db #0x18	; 24
	.db #0x00	; 0
	.db #0x0b	; 11
	.db #0x0b	; 11
	.db #0x00	; 0
	.db #0x00	; 0
	.db #0x00	; 0
	.db #0x00	; 0
	.db #0x0b	; 11
	.db #0x0b	; 11
	.db #0x00	; 0
	.db #0x00	; 0
	.db #0x00	; 0
	.db #0x00	; 0
	.db #0x00	; 0
	.db #0x00	; 0
	.db #0x00	; 0
	.db #0x0b	; 11
	.db #0x0b	; 11
	.db #0x00	; 0
	.db #0x00	; 0
	.db #0x18	; 24
	.db #0x00	; 0
	.db #0x00	; 0
	.db #0x0b	; 11
	.db #0x0b	; 11
	.db #0x00	; 0
	.db #0x00	; 0
	.db #0x00	; 0
	.db #0x19	; 25
	.db #0x1a	; 26
	.db #0x1a	; 26
	.db #0x0b	; 11
	.db #0x00	; 0
	.db #0x00	; 0
	.db #0x18	; 24
	.db #0x00	; 0
	.db #0x0b	; 11
	.db #0x0b	; 11
	.db #0x00	; 0
	.db #0x00	; 0
	.db #0x00	; 0
	.db #0x00	; 0
	.db #0x18	; 24
	.db #0x00	; 0
	.db #0x0b	; 11
	.db #0x0b	; 11
	.db #0x00	; 0
	.db #0x00	; 0
	.db #0x00	; 0
	.db #0x00	; 0
	.db #0x00	; 0
	.db #0x0b	; 11
	.db #0x0b	; 11
	.db #0x18	; 24
	.db #0x00	; 0
	.db #0x00	; 0
	.db #0x00	; 0
	.db #0x0b	; 11
	.db #0x0b	; 11
	.db #0x18	; 24
	.db #0x00	; 0
	.db #0x00	; 0
	.db #0x00	; 0
	.db #0x0b	; 11
	.db #0x0b	; 11
	.db #0x00	; 0
	.db #0x18	; 24
	.db #0x00	; 0
	.db #0x0b	; 11
	.db #0x0b	; 11
	.db #0x00	; 0
	.db #0x00	; 0
	.db #0x00	; 0
	.db #0x00	; 0
	.db #0x18	; 24
	.db #0x00	; 0
	.db #0x00	; 0
	.db #0x0b	; 11
	.db #0x0b	; 11
	.db #0x00	; 0
	.db #0x00	; 0
	.db #0x00	; 0
	.db #0x00	; 0
	.db #0x00	; 0
	.db #0x00	; 0
	.db #0x00	; 0
	.db #0x00	; 0
	.db #0x00	; 0
	.db #0x00	; 0
	.db #0x00	; 0
	.db #0x00	; 0
	.db #0x00	; 0
	.db #0x1a	; 26
	.db #0x1a	; 26
	.db #0x1a	; 26
	.db #0x1b	; 27
	.db #0x00	; 0
	.db #0x00	; 0
	.db #0x0b	; 11
	.db #0x0b	; 11
	.db #0x00	; 0
	.db #0x00	; 0
	.db #0x00	; 0
	.db #0x00	; 0
	.db #0x00	; 0
	.db #0x0b	; 11
	.db #0x0b	; 11
	.db #0x00	; 0
	.db #0x00	; 0
	.db #0x17	; 23
	.db #0x00	; 0
	.db #0x00	; 0
	.db #0x0b	; 11
	.db #0x0b	; 11
	.db #0x00	; 0
	.db #0x00	; 0
	.db #0x0b	; 11
	.db #0x0b	; 11
	.db #0x00	; 0
	.db #0x00	; 0
	.db #0x00	; 0
	.db #0x0b	; 11
	.db #0x0b	; 11
	.db #0x00	; 0
	.db #0x00	; 0
	.db #0x00	; 0
	.db #0x00	; 0
	.db #0x0b	; 11
	.db #0x0b	; 11
	.db #0x00	; 0
	.db #0x00	; 0
	.db #0x00	; 0
	.db #0x17	; 23
	.db #0x00	; 0
	.db #0x00	; 0
	.db #0x00	; 0
	.db #0x0b	; 11
	.db #0x0b	; 11
	.db #0x00	; 0
	.db #0x00	; 0
	.db #0x00	; 0
	.db #0x00	; 0
	.db #0x00	; 0
	.db #0x0b	; 11
	.db #0x0b	; 11
	.db #0x00	; 0
	.db #0x00	; 0
	.db #0x17	; 23
	.db #0x00	; 0
	.db #0x00	; 0
	.db #0x0b	; 11
	.db #0x1a	; 26
	.db #0x1a	; 26
	.db #0x1b	; 27
	.db #0x00	; 0
	.db #0x00	; 0
	.db #0x0b	; 11
	.db #0x0b	; 11
	.db #0x00	; 0
	.db #0x17	; 23
	.db #0x00	; 0
	.db #0x00	; 0
	.db #0x00	; 0
	.db #0x00	; 0
	.db #0x0b	; 11
	.db #0x0b	; 11
	.db #0x00	; 0
	.db #0x00	; 0
	.db #0x17	; 23
	.db #0x00	; 0
	.db #0x00	; 0
	.db #0x0b	; 11
	.db #0x0b	; 11
	.db #0x00	; 0
	.db #0x00	; 0
	.db #0x00	; 0
	.db #0x17	; 23
	.db #0x0b	; 11
	.db #0x0b	; 11
	.db #0x00	; 0
	.db #0x00	; 0
	.db #0x00	; 0
	.db #0x17	; 23
	.db #0x0b	; 11
	.db #0x0b	; 11
	.db #0x00	; 0
	.db #0x00	; 0
	.db #0x00	; 0
	.db #0x0b	; 11
	.db #0x0b	; 11
	.db #0x00	; 0
	.db #0x17	; 23
	.db #0x00	; 0
	.db #0x00	; 0
	.db #0x00	; 0
	.db #0x00	; 0
	.db #0x1c	; 28
	.db #0x1a	; 26
	.db #0x1a	; 26
	.db #0x1a	; 26
	.db #0x1a	; 26
	.db #0x1b	; 27
	.db #0x00	; 0
	.db #0x00	; 0
	.db #0x00	; 0
	.db #0x00	; 0
	.db #0x00	; 0
	.db #0x00	; 0
	.db #0x00	; 0
	.db #0x00	; 0
	.db #0x00	; 0
	.db #0x00	; 0
	.db #0x0b	; 11
	.db #0x0b	; 11
	.db #0x20	; 32
	.db #0x21	; 33
	.db #0x00	; 0
	.db #0x00	; 0
	.db #0x0b	; 11
	.db #0x0b	; 11
	.db #0x00	; 0
	.db #0x00	; 0
	.db #0x00	; 0
	.db #0x00	; 0
	.db #0x00	; 0
	.db #0x0b	; 11
	.db #0x0b	; 11
	.db #0x00	; 0
	.db #0x00	; 0
	.db #0x18	; 24
	.db #0x00	; 0
	.db #0x00	; 0
	.db #0x0b	; 11
	.db #0x0b	; 11
	.db #0x00	; 0
	.db #0x00	; 0
	.db #0x0b	; 11
	.db #0x0b	; 11
	.db #0x00	; 0
	.db #0x00	; 0
	.db #0x00	; 0
	.db #0x0b	; 11
	.db #0x0b	; 11
	.db #0x00	; 0
	.db #0x20	; 32
	.db #0x21	; 33
	.db #0x00	; 0
	.db #0x0b	; 11
	.db #0x0b	; 11
	.db #0x00	; 0
	.db #0x00	; 0
	.db #0x00	; 0
	.db #0x18	; 24
	.db #0x00	; 0
	.db #0x00	; 0
	.db #0x00	; 0
	.db #0x0b	; 11
	.db #0x0b	; 11
	.db #0x00	; 0
	.db #0x00	; 0
	.db #0x00	; 0
	.db #0x20	; 32
	.db #0x21	; 33
	.db #0x0b	; 11
	.db #0x0b	; 11
	.db #0x20	; 32
	.db #0x21	; 33
	.db #0x18	; 24
	.db #0x00	; 0
	.db #0x00	; 0
	.db #0x0b	; 11
	.db #0x0b	; 11
	.db #0x00	; 0
	.db #0x00	; 0
	.db #0x00	; 0
	.db #0x00	; 0
	.db #0x0b	; 11
	.db #0x0b	; 11
	.db #0x00	; 0
	.db #0x18	; 24
	.db #0x20	; 32
	.db #0x21	; 33
	.db #0x00	; 0
	.db #0x00	; 0
	.db #0x0b	; 11
	.db #0x0b	; 11
	.db #0x00	; 0
	.db #0x00	; 0
	.db #0x18	; 24
	.db #0x00	; 0
	.db #0x00	; 0
	.db #0x0b	; 11
	.db #0x0b	; 11
	.db #0x00	; 0
	.db #0x00	; 0
	.db #0x00	; 0
	.db #0x18	; 24
	.db #0x0b	; 11
	.db #0x0b	; 11
	.db #0x20	; 32
	.db #0x21	; 33
	.db #0x00	; 0
	.db #0x18	; 24
	.db #0x0b	; 11
	.db #0x0b	; 11
	.db #0x00	; 0
	.db #0x00	; 0
	.db #0x00	; 0
	.db #0x0b	; 11
	.db #0x0b	; 11
	.db #0x00	; 0
	.db #0x18	; 24
	.db #0x00	; 0
	.db #0x00	; 0
	.db #0x00	; 0
	.db #0x20	; 32
	.db #0x21	; 33
	.db #0x0b	; 11
	.db #0x0b	; 11
	.db #0x00	; 0
	.db #0x00	; 0
	.db #0x00	; 0
	.db #0x00	; 0
	.db #0x00	; 0
	.db #0x00	; 0
	.db #0x00	; 0
	.db #0x00	; 0
	.db #0x00	; 0
	.db #0x00	; 0
	.db #0x00	; 0
	.db #0x00	; 0
	.db #0x00	; 0
	.db #0x0b	; 11
	.db #0x0b	; 11
	.db #0x1e	; 30
	.db #0x1f	; 31
	.db #0x00	; 0
	.db #0x00	; 0
	.db #0x0b	; 11
	.db #0x0b	; 11
	.db #0x22	; 34
	.db #0x23	; 35
	.db #0x00	; 0
	.db #0x22	; 34
	.db #0x23	; 35
	.db #0x0b	; 11
	.db #0x0b	; 11
	.db #0x00	; 0
	.db #0x00	; 0
	.db #0x00	; 0
	.db #0x00	; 0
	.db #0x00	; 0
	.db #0x0b	; 11
	.db #0x0b	; 11
	.db #0x22	; 34
	.db #0x23	; 35
	.db #0x0b	; 11
	.db #0x0b	; 11
	.db #0x00	; 0
	.db #0x00	; 0
	.db #0x00	; 0
	.db #0x0b	; 11
	.db #0x0b	; 11
	.db #0x00	; 0
	.db #0x1e	; 30
	.db #0x1f	; 31
	.db #0x22	; 34
	.db #0x0b	; 11
	.db #0x0b	; 11
	.db #0x00	; 0
	.db #0x22	; 34
	.db #0x23	; 35
	.db #0x00	; 0
	.db #0x00	; 0
	.db #0x00	; 0
	.db #0x22	; 34
	.db #0x0b	; 11
	.db #0x0b	; 11
	.db #0x22	; 34
	.db #0x23	; 35
	.db #0x23	; 35
	.db #0x1e	; 30
	.db #0x1f	; 31
	.db #0x0b	; 11
	.db #0x0b	; 11
	.db #0x1e	; 30
	.db #0x1f	; 31
	.db #0x22	; 34
	.db #0x23	; 35
	.db #0x23	; 35
	.db #0x0b	; 11
	.db #0x0b	; 11
	.db #0x00	; 0
	.db #0x00	; 0
	.db #0x00	; 0
	.db #0x00	; 0
	.db #0x0b	; 11
	.db #0x0b	; 11
	.db #0x00	; 0
	.db #0x00	; 0
	.db #0x1e	; 30
	.db #0x1f	; 31
	.db #0x00	; 0
	.db #0x00	; 0
	.db #0x0b	; 11
	.db #0x0b	; 11
	.db #0x00	; 0
	.db #0x00	; 0
	.db #0x00	; 0
	.db #0x00	; 0
	.db #0x00	; 0
	.db #0x0b	; 11
	.db #0x0b	; 11
	.db #0x00	; 0
	.db #0x00	; 0
	.db #0x00	; 0
	.db #0x00	; 0
	.db #0x0b	; 11
	.db #0x0b	; 11
	.db #0x1e	; 30
	.db #0x1f	; 31
	.db #0x00	; 0
	.db #0x00	; 0
	.db #0x0b	; 11
	.db #0x0b	; 11
	.db #0x00	; 0
	.db #0x00	; 0
	.db #0x00	; 0
	.db #0x0b	; 11
	.db #0x0b	; 11
	.db #0x00	; 0
	.db #0x00	; 0
	.db #0x00	; 0
	.db #0x00	; 0
	.db #0x00	; 0
	.db #0x1e	; 30
	.db #0x1f	; 31
	.db #0x0b	; 11
	.db #0x0b	; 11
	.db #0x00	; 0
	.db #0x00	; 0
	.db #0x00	; 0
	.db #0x00	; 0
	.db #0x00	; 0
	.db #0x00	; 0
	.db #0x00	; 0
	.db #0x00	; 0
	.db #0x00	; 0
	.db #0x00	; 0
	.db #0x24	; 36
	.db #0x24	; 36
	.db #0x24	; 36
	.db #0x24	; 36
	.db #0x24	; 36
	.db #0x24	; 36
	.db #0x24	; 36
	.db #0x24	; 36
	.db #0x24	; 36
	.db #0x24	; 36
	.db #0x24	; 36
	.db #0x24	; 36
	.db #0x24	; 36
	.db #0x24	; 36
	.db #0x24	; 36
	.db #0x24	; 36
	.db #0x24	; 36
	.db #0x24	; 36
	.db #0x24	; 36
	.db #0x24	; 36
	.db #0x24	; 36
	.db #0x24	; 36
	.db #0x24	; 36
	.db #0x24	; 36
	.db #0x24	; 36
	.db #0x24	; 36
	.db #0x24	; 36
	.db #0x24	; 36
	.db #0x24	; 36
	.db #0x24	; 36
	.db #0x24	; 36
	.db #0x24	; 36
	.db #0x24	; 36
	.db #0x24	; 36
	.db #0x24	; 36
	.db #0x24	; 36
	.db #0x24	; 36
	.db #0x24	; 36
	.db #0x24	; 36
	.db #0x24	; 36
	.db #0x24	; 36
	.db #0x24	; 36
	.db #0x24	; 36
	.db #0x24	; 36
	.db #0x24	; 36
	.db #0x24	; 36
	.db #0x24	; 36
	.db #0x24	; 36
	.db #0x24	; 36
	.db #0x24	; 36
	.db #0x24	; 36
	.db #0x24	; 36
	.db #0x24	; 36
	.db #0x24	; 36
	.db #0x24	; 36
	.db #0x24	; 36
	.db #0x24	; 36
	.db #0x24	; 36
	.db #0x24	; 36
	.db #0x24	; 36
	.db #0x24	; 36
	.db #0x24	; 36
	.db #0x24	; 36
	.db #0x24	; 36
	.db #0x24	; 36
	.db #0x24	; 36
	.db #0x24	; 36
	.db #0x24	; 36
	.db #0x24	; 36
	.db #0x24	; 36
	.db #0x24	; 36
	.db #0x24	; 36
	.db #0x24	; 36
	.db #0x24	; 36
	.db #0x24	; 36
	.db #0x24	; 36
	.db #0x24	; 36
	.db #0x24	; 36
	.db #0x24	; 36
	.db #0x24	; 36
	.db #0x24	; 36
	.db #0x24	; 36
	.db #0x24	; 36
	.db #0x24	; 36
	.db #0x24	; 36
	.db #0x24	; 36
	.db #0x24	; 36
	.db #0x24	; 36
	.db #0x24	; 36
	.db #0x24	; 36
	.db #0x24	; 36
	.db #0x24	; 36
	.db #0x24	; 36
	.db #0x24	; 36
	.db #0x24	; 36
	.db #0x24	; 36
	.db #0x24	; 36
	.db #0x24	; 36
	.db #0x24	; 36
	.db #0x24	; 36
	.db #0x24	; 36
	.db #0x24	; 36
	.db #0x24	; 36
	.db #0x24	; 36
	.db #0x24	; 36
	.db #0x24	; 36
	.db #0x24	; 36
	.db #0x24	; 36
	.db #0x24	; 36
	.db #0x24	; 36
	.db #0x24	; 36
	.db #0x24	; 36
	.db #0x24	; 36
	.db #0x24	; 36
	.db #0x24	; 36
	.db #0x24	; 36
	.db #0x24	; 36
	.db #0x24	; 36
	.db #0x24	; 36
	.db #0x24	; 36
	.db #0x25	; 37
	.db #0x25	; 37
	.db #0x25	; 37
	.db #0x25	; 37
	.db #0x25	; 37
	.db #0x25	; 37
	.db #0x25	; 37
	.db #0x25	; 37
	.db #0x25	; 37
	.db #0x25	; 37
	.db #0x25	; 37
	.db #0x25	; 37
	.db #0x25	; 37
	.db #0x25	; 37
	.db #0x25	; 37
	.db #0x25	; 37
	.db #0x25	; 37
	.db #0x25	; 37
	.db #0x25	; 37
	.db #0x25	; 37
	.db #0x25	; 37
	.db #0x25	; 37
	.db #0x25	; 37
	.db #0x25	; 37
	.db #0x25	; 37
	.db #0x25	; 37
	.db #0x25	; 37
	.db #0x25	; 37
	.db #0x25	; 37
	.db #0x25	; 37
	.db #0x25	; 37
	.db #0x25	; 37
	.db #0x25	; 37
	.db #0x25	; 37
	.db #0x25	; 37
	.db #0x25	; 37
	.db #0x25	; 37
	.db #0x25	; 37
	.db #0x25	; 37
	.db #0x25	; 37
	.db #0x25	; 37
	.db #0x25	; 37
	.db #0x25	; 37
	.db #0x25	; 37
	.db #0x25	; 37
	.db #0x25	; 37
	.db #0x25	; 37
	.db #0x25	; 37
	.db #0x25	; 37
	.db #0x25	; 37
	.db #0x25	; 37
	.db #0x25	; 37
	.db #0x25	; 37
	.db #0x25	; 37
	.db #0x25	; 37
	.db #0x25	; 37
	.db #0x25	; 37
	.db #0x25	; 37
	.db #0x25	; 37
	.db #0x25	; 37
	.db #0x25	; 37
	.db #0x25	; 37
	.db #0x25	; 37
	.db #0x25	; 37
	.db #0x25	; 37
	.db #0x25	; 37
	.db #0x25	; 37
	.db #0x25	; 37
	.db #0x25	; 37
	.db #0x25	; 37
	.db #0x25	; 37
	.db #0x25	; 37
	.db #0x25	; 37
	.db #0x25	; 37
	.db #0x25	; 37
	.db #0x25	; 37
	.db #0x25	; 37
	.db #0x25	; 37
	.db #0x25	; 37
	.db #0x25	; 37
	.db #0x25	; 37
	.db #0x25	; 37
	.db #0x25	; 37
	.db #0x25	; 37
	.db #0x25	; 37
	.db #0x25	; 37
	.db #0x25	; 37
	.db #0x25	; 37
	.db #0x25	; 37
	.db #0x25	; 37
	.db #0x25	; 37
	.db #0x25	; 37
	.db #0x25	; 37
	.db #0x25	; 37
	.db #0x25	; 37
	.db #0x25	; 37
	.db #0x25	; 37
	.db #0x25	; 37
	.db #0x25	; 37
	.db #0x25	; 37
	.db #0x25	; 37
	.db #0x25	; 37
	.db #0x25	; 37
	.db #0x25	; 37
	.db #0x25	; 37
	.db #0x25	; 37
	.db #0x25	; 37
	.db #0x25	; 37
	.db #0x25	; 37
	.db #0x25	; 37
	.db #0x25	; 37
	.db #0x25	; 37
	.db #0x25	; 37
	.db #0x25	; 37
	.db #0x25	; 37
	.db #0x25	; 37
	.db #0x25	; 37
	.db #0x25	; 37
	.db #0x25	; 37
	.db #0x25	; 37
	.db #0x25	; 37
	.db #0x25	; 37
	.db #0x25	; 37
	.db #0x25	; 37
	.db #0x25	; 37
	.db #0x25	; 37
	.db #0x25	; 37
	.db #0x25	; 37
	.db #0x25	; 37
	.db #0x25	; 37
	.db #0x25	; 37
	.db #0x25	; 37
	.db #0x25	; 37
	.db #0x25	; 37
	.db #0x25	; 37
	.db #0x25	; 37
	.db #0x25	; 37
	.db #0x25	; 37
	.db #0x25	; 37
	.db #0x25	; 37
	.db #0x25	; 37
	.db #0x25	; 37
	.db #0x25	; 37
	.db #0x25	; 37
	.db #0x25	; 37
	.db #0x25	; 37
	.db #0x25	; 37
	.db #0x25	; 37
	.db #0x25	; 37
	.db #0x25	; 37
	.db #0x25	; 37
	.db #0x25	; 37
	.db #0x25	; 37
	.db #0x25	; 37
	.db #0x25	; 37
	.db #0x25	; 37
	.db #0x25	; 37
	.db #0x25	; 37
	.db #0x25	; 37
	.db #0x25	; 37
	.db #0x25	; 37
	.db #0x25	; 37
	.db #0x25	; 37
	.db #0x25	; 37
	.db #0x25	; 37
	.db #0x25	; 37
	.db #0x25	; 37
	.db #0x25	; 37
	.db #0x25	; 37
	.db #0x25	; 37
	.db #0x25	; 37
	.db #0x25	; 37
	.db #0x25	; 37
	.db #0x25	; 37
	.db #0x25	; 37
	.db #0x25	; 37
	.db #0x25	; 37
	.db #0x25	; 37
	.db #0x25	; 37
	.db #0x25	; 37
	.db #0x25	; 37
	.db #0x25	; 37
	.db #0x25	; 37
	.db #0x25	; 37
	.db #0x25	; 37
	.db #0x25	; 37
	.db #0x25	; 37
	.db #0x25	; 37
	.db #0x25	; 37
	.db #0x25	; 37
	.db #0x25	; 37
	.db #0x25	; 37
	.db #0x25	; 37
	.db #0x25	; 37
	.db #0x25	; 37
	.db #0x25	; 37
	.db #0x25	; 37
	.db #0x25	; 37
	.db #0x25	; 37
	.db #0x25	; 37
	.db #0x25	; 37
	.db #0x25	; 37
	.db #0x25	; 37
	.db #0x25	; 37
	.db #0x25	; 37
	.db #0x25	; 37
	.db #0x25	; 37
	.db #0x25	; 37
	.db #0x25	; 37
	.db #0x25	; 37
	.db #0x25	; 37
	.db #0x25	; 37
	.db #0x25	; 37
	.db #0x25	; 37
	.db #0x25	; 37
	.db #0x25	; 37
	.db #0x25	; 37
	.db #0x25	; 37
	.db #0x25	; 37
	.db #0x25	; 37
	.db #0x25	; 37
	.db #0x25	; 37
	.db #0x25	; 37
	.db #0x25	; 37
	.db #0x25	; 37
	.db #0x25	; 37
	.db #0x25	; 37
	.db #0x25	; 37
	.db #0x25	; 37
	.db #0x25	; 37
	.db #0x25	; 37
	.db #0x25	; 37
	.db #0x25	; 37
	.db #0x25	; 37
	.db #0x25	; 37
	.db #0x25	; 37
	.db #0x25	; 37
	.db #0x25	; 37
	.db #0x25	; 37
	.db #0x25	; 37
__xinit__Main_sprites:
	.db #0x00	; 0
	.db #0x07	; 7
	.db #0x05	; 5
	.db #0x0f	; 15
	.db #0x03	; 3
	.db #0x0e	; 14
	.db #0x07	; 7
	.db #0x0c	; 12
	.db #0x03	; 3
	.db #0x0e	; 14
	.db #0x01	; 1
	.db #0x0f	; 15
	.db #0x03	; 3
	.db #0x0f	; 15
	.db #0x03	; 3
	.db #0x0c	; 12
	.db #0x03	; 3
	.db #0x0d	; 13
	.db #0x03	; 3
	.db #0x1f	; 31
	.db #0x03	; 3
	.db #0x04	; 4
	.db #0x03	; 3
	.db #0x03	; 3
	.db #0x03	; 3
	.db #0x03	; 3
	.db #0x02	; 2
	.db #0x02	; 2
	.db #0x02	; 2
	.db #0x02	; 2
	.db #0x03	; 3
	.db #0x03	; 3
	.db #0x00	; 0
	.db #0xe0	; 224
	.db #0x00	; 0
	.db #0xf0	; 240
	.db #0xe0	; 224
	.db #0x10	; 16
	.db #0x40	; 64
	.db #0xb0	; 176
	.db #0xe0	; 224
	.db #0x10	; 16
	.db #0xe0	; 224
	.db #0x30	; 48	'0'
	.db #0xb0	; 176
	.db #0xf0	; 240
	.db #0xb8	; 184
	.db #0xe0	; 224
	.db #0xb0	; 176
	.db #0xe0	; 224
	.db #0xb0	; 176
	.db #0xf0	; 240
	.db #0xf0	; 240
	.db #0x00	; 0
	.db #0xf0	; 240
	.db #0xf0	; 240
	.db #0x30	; 48	'0'
	.db #0x30	; 48	'0'
	.db #0x20	; 32
	.db #0x20	; 32
	.db #0x20	; 32
	.db #0x20	; 32
	.db #0x30	; 48	'0'
	.db #0x30	; 48	'0'
	.db #0x00	; 0
	.db #0x07	; 7
	.db #0x02	; 2
	.db #0x0f	; 15
	.db #0x01	; 1
	.db #0x0f	; 15
	.db #0x03	; 3
	.db #0x0e	; 14
	.db #0x00	; 0
	.db #0x0f	; 15
	.db #0x01	; 1
	.db #0x0f	; 15
	.db #0x01	; 1
	.db #0x0f	; 15
	.db #0x01	; 1
	.db #0x0e	; 14
	.db #0x01	; 1
	.db #0x0e	; 14
	.db #0x01	; 1
	.db #0x1f	; 31
	.db #0x01	; 1
	.db #0x06	; 6
	.db #0x03	; 3
	.db #0x03	; 3
	.db #0x07	; 7
	.db #0x07	; 7
	.db #0x06	; 6
	.db #0x06	; 6
	.db #0x04	; 4
	.db #0x04	; 4
	.db #0x06	; 6
	.db #0x06	; 6
	.db #0x00	; 0
	.db #0xe0	; 224
	.db #0x80	; 128
	.db #0xe0	; 224
	.db #0xe0	; 224
	.db #0x00	; 0
	.db #0xa0	; 160
	.db #0x40	; 64
	.db #0xe0	; 224
	.db #0x00	; 0
	.db #0xc0	; 192
	.db #0x80	; 128
	.db #0xc0	; 192
	.db #0xe0	; 224
	.db #0xd0	; 208
	.db #0x60	; 96
	.db #0xc0	; 192
	.db #0xe0	; 224
	.db #0xc0	; 192
	.db #0xe0	; 224
	.db #0xe0	; 224
	.db #0x00	; 0
	.db #0xe0	; 224
	.db #0xe0	; 224
	.db #0x60	; 96
	.db #0x60	; 96
	.db #0x20	; 32
	.db #0x20	; 32
	.db #0x30	; 48	'0'
	.db #0x30	; 48	'0'
	.db #0x00	; 0
	.db #0x00	; 0
	.db #0x00	; 0
	.db #0x07	; 7
	.db #0x02	; 2
	.db #0x0f	; 15
	.db #0x01	; 1
	.db #0x0f	; 15
	.db #0x03	; 3
	.db #0x0e	; 14
	.db #0x00	; 0
	.db #0x0f	; 15
	.db #0x01	; 1
	.db #0x0f	; 15
	.db #0x01	; 1
	.db #0x0f	; 15
	.db #0x01	; 1
	.db #0x0e	; 14
	.db #0x01	; 1
	.db #0x0e	; 14
	.db #0x01	; 1
	.db #0x1f	; 31
	.db #0x01	; 1
	.db #0x06	; 6
	.db #0x03	; 3
	.db #0x03	; 3
	.db #0x03	; 3
	.db #0x03	; 3
	.db #0x03	; 3
	.db #0x03	; 3
	.db #0x03	; 3
	.db #0x03	; 3
	.db #0x02	; 2
	.db #0x02	; 2
	.db #0x00	; 0
	.db #0xe0	; 224
	.db #0x80	; 128
	.db #0xe0	; 224
	.db #0xe0	; 224
	.db #0x00	; 0
	.db #0xa0	; 160
	.db #0x40	; 64
	.db #0xe0	; 224
	.db #0x00	; 0
	.db #0xc0	; 192
	.db #0x80	; 128
	.db #0xc0	; 192
	.db #0xe0	; 224
	.db #0xd0	; 208
	.db #0x60	; 96
	.db #0xc0	; 192
	.db #0xe0	; 224
	.db #0xc0	; 192
	.db #0xe0	; 224
	.db #0xe0	; 224
	.db #0x00	; 0
	.db #0xe0	; 224
	.db #0xe0	; 224
	.db #0xa0	; 160
	.db #0xa0	; 160
	.db #0x20	; 32
	.db #0x20	; 32
	.db #0x20	; 32
	.db #0x20	; 32
	.db #0x30	; 48	'0'
	.db #0x30	; 48	'0'
	.db #0x00	; 0
	.db #0x00	; 0
	.db #0x00	; 0
	.db #0x07	; 7
	.db #0x02	; 2
	.db #0x0f	; 15
	.db #0x01	; 1
	.db #0x0f	; 15
	.db #0x03	; 3
	.db #0x0e	; 14
	.db #0x00	; 0
	.db #0x0f	; 15
	.db #0x01	; 1
	.db #0x0f	; 15
	.db #0x01	; 1
	.db #0x0f	; 15
	.db #0x01	; 1
	.db #0x0e	; 14
	.db #0x01	; 1
	.db #0x0e	; 14
	.db #0x01	; 1
	.db #0x1f	; 31
	.db #0x01	; 1
	.db #0x06	; 6
	.db #0x03	; 3
	.db #0x03	; 3
	.db #0x03	; 3
	.db #0x03	; 3
	.db #0x06	; 6
	.db #0x06	; 6
	.db #0x04	; 4
	.db #0x04	; 4
	.db #0x00	; 0
	.db #0x00	; 0
	.db #0x00	; 0
	.db #0xe0	; 224
	.db #0x80	; 128
	.db #0xe0	; 224
	.db #0xe0	; 224
	.db #0x00	; 0
	.db #0xa0	; 160
	.db #0x40	; 64
	.db #0xe0	; 224
	.db #0x00	; 0
	.db #0xc0	; 192
	.db #0x80	; 128
	.db #0xc0	; 192
	.db #0xe0	; 224
	.db #0xd0	; 208
	.db #0x60	; 96
	.db #0xc0	; 192
	.db #0xe0	; 224
	.db #0xc0	; 192
	.db #0xe0	; 224
	.db #0xe0	; 224
	.db #0x00	; 0
	.db #0xe0	; 224
	.db #0xe0	; 224
	.db #0x60	; 96
	.db #0x60	; 96
	.db #0x40	; 64
	.db #0x40	; 64
	.db #0x60	; 96
	.db #0x60	; 96
	.db #0x00	; 0
	.db #0x00	; 0
	.db #0x00	; 0
	.db #0x00	; 0
	.db #0x01	; 1
	.db #0x03	; 3
	.db #0x03	; 3
	.db #0x06	; 6
	.db #0x05	; 5
	.db #0x0e	; 14
	.db #0x03	; 3
	.db #0x0e	; 14
	.db #0x05	; 5
	.db #0x0f	; 15
	.db #0x03	; 3
	.db #0x0f	; 15
	.db #0x03	; 3
	.db #0x0c	; 12
	.db #0x03	; 3
	.db #0x0d	; 13
	.db #0x03	; 3
	.db #0x0f	; 15
	.db #0x03	; 3
	.db #0x0c	; 12
	.db #0x03	; 3
	.db #0x0f	; 15
	.db #0x03	; 3
	.db #0x1f	; 31
	.db #0x06	; 6
	.db #0x0e	; 14
	.db #0x04	; 4
	.db #0x04	; 4
	.db #0x00	; 0
	.db #0x00	; 0
	.db #0x00	; 0
	.db #0x00	; 0
	.db #0x00	; 0
	.db #0xe0	; 224
	.db #0xe0	; 224
	.db #0x10	; 16
	.db #0x40	; 64
	.db #0xb0	; 176
	.db #0xe0	; 224
	.db #0x10	; 16
	.db #0xe0	; 224
	.db #0x30	; 48	'0'
	.db #0xa0	; 160
	.db #0xf0	; 240
	.db #0xb8	; 184
	.db #0xe0	; 224
	.db #0xb0	; 176
	.db #0xe0	; 224
	.db #0xb0	; 176
	.db #0xf0	; 240
	.db #0xf0	; 240
	.db #0x00	; 0
	.db #0xf0	; 240
	.db #0xf0	; 240
	.db #0x30	; 48	'0'
	.db #0x30	; 48	'0'
	.db #0x60	; 96
	.db #0x60	; 96
	.db #0x40	; 64
	.db #0x40	; 64
	.db #0x00	; 0
	.db #0x00	; 0
	.db #0x00	; 0
	.db #0x00	; 0
	.db #0x00	; 0
	.db #0x00	; 0
	.db #0x00	; 0
	.db #0x00	; 0
	.db #0x00	; 0
	.db #0x00	; 0
	.db #0x00	; 0
	.db #0x00	; 0
	.db #0x00	; 0
	.db #0x00	; 0
	.db #0x00	; 0
	.db #0x00	; 0
	.db #0x00	; 0
	.db #0x00	; 0
	.db #0x00	; 0
	.db #0x00	; 0
	.db #0x00	; 0
	.db #0x00	; 0
	.db #0x00	; 0
	.db #0x00	; 0
	.db #0x00	; 0
	.db #0x00	; 0
	.db #0x00	; 0
	.db #0x00	; 0
	.db #0x00	; 0
	.db #0x00	; 0
	.db #0x00	; 0
	.db #0x00	; 0
	.db #0x18	; 24
	.db #0x18	; 24
	.db #0x0a	; 10
	.db #0x0a	; 10
	.db #0x04	; 4
	.db #0x00	; 0
	.db #0x02	; 2
	.db #0x02	; 2
	.db #0x01	; 1
	.db #0x03	; 3
	.db #0x01	; 1
	.db #0x03	; 3
	.db #0x04	; 4
	.db #0x04	; 4
	.db #0x04	; 4
	.db #0x04	; 4
	.db #0x04	; 4
	.db #0x04	; 4
	.db #0x01	; 1
	.db #0x03	; 3
	.db #0x01	; 1
	.db #0x03	; 3
	.db #0x02	; 2
	.db #0x02	; 2
	.db #0x04	; 4
	.db #0x00	; 0
	.db #0x0a	; 10
	.db #0x0a	; 10
	.db #0x18	; 24
	.db #0x18	; 24
	.db #0x00	; 0
	.db #0x00	; 0
	.db #0x00	; 0
	.db #0x00	; 0
	.db #0x00	; 0
	.db #0x00	; 0
	.db #0x00	; 0
	.db #0x00	; 0
	.db #0x00	; 0
	.db #0x00	; 0
	.db #0x00	; 0
	.db #0x00	; 0
	.db #0x00	; 0
	.db #0x00	; 0
	.db #0x00	; 0
	.db #0x00	; 0
	.db #0x00	; 0
	.db #0x00	; 0
	.db #0x00	; 0
	.db #0x00	; 0
	.db #0x00	; 0
	.db #0x00	; 0
	.db #0x00	; 0
	.db #0x00	; 0
	.db #0x00	; 0
	.db #0x00	; 0
	.db #0x00	; 0
	.db #0x00	; 0
	.db #0x00	; 0
	.db #0x00	; 0
	.db #0x00	; 0
	.db #0x00	; 0
	.db #0x00	; 0
	.db #0x00	; 0
	.db #0x00	; 0
	.db #0x00	; 0
	.db #0x00	; 0
	.db #0x00	; 0
	.db #0x00	; 0
	.db #0x00	; 0
	.db #0x00	; 0
	.db #0x00	; 0
	.db #0x00	; 0
	.db #0x00	; 0
	.db #0x00	; 0
	.db #0x00	; 0
	.db #0x00	; 0
	.db #0x00	; 0
	.db #0x02	; 2
	.db #0x00	; 0
	.db #0xff	; 255
	.db #0x00	; 0
	.db #0x02	; 2
	.db #0x00	; 0
	.db #0x00	; 0
	.db #0x00	; 0
	.db #0x00	; 0
	.db #0x00	; 0
	.db #0x00	; 0
	.db #0x00	; 0
	.db #0x00	; 0
	.db #0x00	; 0
	.db #0x00	; 0
	.db #0x00	; 0
	.db #0x00	; 0
	.db #0x00	; 0
	.db #0x00	; 0
	.db #0x00	; 0
	.db #0x00	; 0
	.db #0x00	; 0
	.db #0x00	; 0
	.db #0x00	; 0
	.db #0x00	; 0
	.db #0x00	; 0
	.db #0x00	; 0
	.db #0x00	; 0
	.db #0x00	; 0
	.db #0x00	; 0
	.db #0x08	; 8
	.db #0x00	; 0
	.db #0x04	; 4
	.db #0x00	; 0
	.db #0x06	; 6
	.db #0x04	; 4
	.db #0x0e	; 14
	.db #0x0e	; 14
	.db #0x1f	; 31
	.db #0x1b	; 27
	.db #0x03	; 3
	.db #0x1e	; 30
	.db #0x0f	; 15
	.db #0x03	; 3
	.db #0x03	; 3
	.db #0x03	; 3
	.db #0x02	; 2
	.db #0x00	; 0
	.db #0x02	; 2
	.db #0x06	; 6
	.db #0x00	; 0
	.db #0x00	; 0
	.db #0x00	; 0
	.db #0x00	; 0
	.db #0x00	; 0
	.db #0x00	; 0
	.db #0x00	; 0
	.db #0x00	; 0
	.db #0x00	; 0
	.db #0x00	; 0
	.db #0x00	; 0
	.db #0x00	; 0
	.db #0x00	; 0
	.db #0x00	; 0
	.db #0x00	; 0
	.db #0x00	; 0
	.db #0x00	; 0
	.db #0x00	; 0
	.db #0x00	; 0
	.db #0x80	; 128
	.db #0x80	; 128
	.db #0x50	; 80	'P'
	.db #0xd2	; 210
	.db #0xaa	; 170
	.db #0xf9	; 249
	.db #0xdd	; 221
	.db #0x7c	; 124
	.db #0x7c	; 124
	.db #0x1c	; 28
	.db #0x0c	; 12
	.db #0x18	; 24
	.db #0x38	; 56	'8'
	.db #0x00	; 0
	.db #0x00	; 0
	.db #0x00	; 0
	.db #0x00	; 0
	.db #0x00	; 0
	.db #0x00	; 0
	.db #0x00	; 0
	.db #0x00	; 0
	.db #0x00	; 0
	.db #0x00	; 0
	.db #0x08	; 8
	.db #0x00	; 0
	.db #0x04	; 4
	.db #0x00	; 0
	.db #0x06	; 6
	.db #0x04	; 4
	.db #0x0e	; 14
	.db #0x0e	; 14
	.db #0x1f	; 31
	.db #0x1b	; 27
	.db #0x03	; 3
	.db #0x1e	; 30
	.db #0x0f	; 15
	.db #0x03	; 3
	.db #0x03	; 3
	.db #0x03	; 3
	.db #0x06	; 6
	.db #0x00	; 0
	.db #0x04	; 4
	.db #0x0c	; 12
	.db #0x00	; 0
	.db #0x00	; 0
	.db #0x00	; 0
	.db #0x00	; 0
	.db #0x00	; 0
	.db #0x00	; 0
	.db #0x00	; 0
	.db #0x00	; 0
	.db #0x00	; 0
	.db #0x00	; 0
	.db #0x00	; 0
	.db #0x00	; 0
	.db #0x00	; 0
	.db #0x00	; 0
	.db #0x00	; 0
	.db #0x00	; 0
	.db #0x00	; 0
	.db #0x00	; 0
	.db #0x00	; 0
	.db #0x80	; 128
	.db #0x80	; 128
	.db #0x50	; 80	'P'
	.db #0xd2	; 210
	.db #0xea	; 234
	.db #0xf9	; 249
	.db #0xdd	; 221
	.db #0x7c	; 124
	.db #0x7c	; 124
	.db #0x0c	; 12
	.db #0x0c	; 12
	.db #0x02	; 2
	.db #0x00	; 0
	.db #0x02	; 2
	.db #0x06	; 6
	.db #0x00	; 0
	.db #0x00	; 0
	.db #0x00	; 0
	.db #0x00	; 0
	.db #0x00	; 0
	.db #0x00	; 0
	.db #0x00	; 0
	.db #0x00	; 0
	.db #0x00	; 0
	.db #0x00	; 0
	.db #0x00	; 0
	.db #0x00	; 0
	.db #0x00	; 0
	.db #0x00	; 0
	.db #0x10	; 16
	.db #0x00	; 0
	.db #0x08	; 8
	.db #0x00	; 0
	.db #0x0c	; 12
	.db #0x08	; 8
	.db #0x1c	; 28
	.db #0x1d	; 29
	.db #0x3f	; 63
	.db #0x36	; 54	'6'
	.db #0x07	; 7
	.db #0x3d	; 61
	.db #0x1f	; 31
	.db #0x07	; 7
	.db #0x06	; 6
	.db #0x02	; 2
	.db #0x02	; 2
	.db #0x00	; 0
	.db #0x00	; 0
	.db #0x00	; 0
	.db #0x00	; 0
	.db #0x00	; 0
	.db #0x00	; 0
	.db #0x00	; 0
	.db #0x00	; 0
	.db #0x00	; 0
	.db #0x00	; 0
	.db #0x00	; 0
	.db #0x00	; 0
	.db #0x00	; 0
	.db #0x00	; 0
	.db #0x00	; 0
	.db #0x00	; 0
	.db #0x00	; 0
	.db #0x00	; 0
	.db #0x00	; 0
	.db #0x00	; 0
	.db #0x00	; 0
	.db #0x00	; 0
	.db #0x00	; 0
	.db #0x00	; 0
	.db #0xa0	; 160
	.db #0xa4	; 164
	.db #0xd4	; 212
	.db #0xf2	; 242
	.db #0xba	; 186
	.db #0xf8	; 248
	.db #0xe8	; 232
	.db #0x10	; 16
	.db #0x30	; 48	'0'
	.db #0x00	; 0
	.db #0x00	; 0
	.db #0x00	; 0
	.db #0x00	; 0
	.db #0x00	; 0
	.db #0x00	; 0
	.db #0x00	; 0
	.db #0x00	; 0
	.db #0x00	; 0
	.db #0x00	; 0
	.db #0x10	; 16
	.db #0x00	; 0
	.db #0x08	; 8
	.db #0x00	; 0
	.db #0x0c	; 12
	.db #0x08	; 8
	.db #0x1c	; 28
	.db #0x1d	; 29
	.db #0x3f	; 63
	.db #0x36	; 54	'6'
	.db #0x07	; 7
	.db #0x3d	; 61
	.db #0x1f	; 31
	.db #0x07	; 7
	.db #0x06	; 6
	.db #0x06	; 6
	.db #0x01	; 1
	.db #0x00	; 0
	.db #0x00	; 0
	.db #0x00	; 0
	.db #0x00	; 0
	.db #0x00	; 0
	.db #0x00	; 0
	.db #0x00	; 0
	.db #0x00	; 0
	.db #0x00	; 0
	.db #0x00	; 0
	.db #0x00	; 0
	.db #0x00	; 0
	.db #0x00	; 0
	.db #0x00	; 0
	.db #0x00	; 0
	.db #0x00	; 0
	.db #0x00	; 0
	.db #0x00	; 0
	.db #0x00	; 0
	.db #0x00	; 0
	.db #0x00	; 0
	.db #0x00	; 0
	.db #0x00	; 0
	.db #0x00	; 0
	.db #0xa0	; 160
	.db #0xa4	; 164
	.db #0xd4	; 212
	.db #0xf2	; 242
	.db #0xba	; 186
	.db #0xf8	; 248
	.db #0xf8	; 248
	.db #0x18	; 24
	.db #0x10	; 16
	.db #0x04	; 4
	.db #0x84	; 132
	.db #0x04	; 4
	.db #0x0c	; 12
	.db #0x00	; 0
	.db #0x00	; 0
	.db #0x00	; 0
	.db #0x00	; 0
	.db #0x00	; 0
	.db #0x00	; 0
	.db #0x00	; 0
	.db #0x00	; 0
	.db #0x00	; 0
	.db #0x00	; 0
	.db #0x00	; 0
	.db #0x00	; 0
	.db #0x00	; 0
	.db #0x00	; 0
	.db #0x00	; 0
	.db #0x00	; 0
	.db #0x00	; 0
	.db #0x00	; 0
	.db #0x02	; 2
	.db #0x02	; 2
	.db #0x03	; 3
	.db #0x03	; 3
	.db #0x03	; 3
	.db #0x01	; 1
	.db #0x07	; 7
	.db #0x07	; 7
	.db #0x01	; 1
	.db #0x01	; 1
	.db #0x01	; 1
	.db #0x01	; 1
	.db #0x03	; 3
	.db #0x01	; 1
	.db #0x00	; 0
	.db #0x00	; 0
	.db #0x00	; 0
	.db #0x00	; 0
	.db #0x00	; 0
	.db #0x00	; 0
	.db #0x00	; 0
	.db #0x00	; 0
	.db #0x00	; 0
	.db #0x00	; 0
	.db #0x00	; 0
	.db #0x00	; 0
	.db #0x00	; 0
	.db #0x00	; 0
	.db #0x00	; 0
	.db #0x00	; 0
	.db #0x00	; 0
	.db #0x00	; 0
	.db #0x00	; 0
	.db #0x00	; 0
	.db #0x70	; 112	'p'
	.db #0x00	; 0
	.db #0xf8	; 248
	.db #0xf3	; 243
	.db #0xdc	; 220
	.db #0xfb	; 251
	.db #0xe4	; 228
	.db #0xfc	; 252
	.db #0x9c	; 156
	.db #0x9c	; 156
	.db #0x38	; 56	'8'
	.db #0x18	; 24
	.db #0x00	; 0
	.db #0x00	; 0
	.db #0x00	; 0
	.db #0x00	; 0
	.db #0x00	; 0
	.db #0x00	; 0
	.db #0x00	; 0
	.db #0x00	; 0
	.db #0x00	; 0
	.db #0x00	; 0
	.db #0x00	; 0
	.db #0x00	; 0
	.db #0x00	; 0
	.db #0x00	; 0
	.db #0x00	; 0
	.db #0x00	; 0
	.db #0x00	; 0
	.db #0x00	; 0
	.db #0x00	; 0
	.db #0x00	; 0
	.db #0x00	; 0
	.db #0x00	; 0
	.db #0x18	; 24
	.db #0x18	; 24
	.db #0x1d	; 29
	.db #0x0c	; 12
	.db #0x07	; 7
	.db #0x1c	; 28
	.db #0x07	; 7
	.db #0x07	; 7
	.db #0x01	; 1
	.db #0x0f	; 15
	.db #0x00	; 0
	.db #0x00	; 0
	.db #0x00	; 0
	.db #0x00	; 0
	.db #0x00	; 0
	.db #0x00	; 0
	.db #0x00	; 0
	.db #0x00	; 0
	.db #0x00	; 0
	.db #0x00	; 0
	.db #0x00	; 0
	.db #0x00	; 0
	.db #0x00	; 0
	.db #0x00	; 0
	.db #0x00	; 0
	.db #0x00	; 0
	.db #0x00	; 0
	.db #0x00	; 0
	.db #0x00	; 0
	.db #0x00	; 0
	.db #0x00	; 0
	.db #0x00	; 0
	.db #0x60	; 96
	.db #0x80	; 128
	.db #0x90	; 144
	.db #0x60	; 96
	.db #0x60	; 96
	.db #0x98	; 152
	.db #0xd8	; 216
	.db #0x20	; 32
	.db #0xc0	; 192
	.db #0xf8	; 248
	.db #0x00	; 0
	.db #0x00	; 0
	.db #0x00	; 0
	.db #0x00	; 0
	.db #0x00	; 0
	.db #0x00	; 0
	.db #0x00	; 0
	.db #0x00	; 0
	.db #0x00	; 0
	.db #0x00	; 0
	.db #0x00	; 0
	.db #0x00	; 0
	.db #0x00	; 0
	.db #0x00	; 0
	.db #0x00	; 0
	.db #0x00	; 0
	.db #0x00	; 0
	.db #0x00	; 0
	.db #0x00	; 0
	.db #0x00	; 0
	.db #0x02	; 2
	.db #0x02	; 2
	.db #0x01	; 1
	.db #0x01	; 1
	.db #0x03	; 3
	.db #0x02	; 2
	.db #0x07	; 7
	.db #0x04	; 4
	.db #0x07	; 7
	.db #0x07	; 7
	.db #0x01	; 1
	.db #0x07	; 7
	.db #0x00	; 0
	.db #0x00	; 0
	.db #0x00	; 0
	.db #0x00	; 0
	.db #0x00	; 0
	.db #0x00	; 0
	.db #0x00	; 0
	.db #0x00	; 0
	.db #0x00	; 0
	.db #0x00	; 0
	.db #0x00	; 0
	.db #0x00	; 0
	.db #0x00	; 0
	.db #0x00	; 0
	.db #0x00	; 0
	.db #0x00	; 0
	.db #0x00	; 0
	.db #0x00	; 0
	.db #0x40	; 64
	.db #0x40	; 64
	.db #0xe8	; 232
	.db #0xe8	; 232
	.db #0x70	; 112	'p'
	.db #0x90	; 144
	.db #0x98	; 152
	.db #0x68	; 104	'h'
	.db #0x64	; 100	'd'
	.db #0x9c	; 156
	.db #0xd8	; 216
	.db #0x20	; 32
	.db #0xc0	; 192
	.db #0xf8	; 248
	.db #0x00	; 0
	.db #0x00	; 0
	.db #0x00	; 0
	.db #0x00	; 0
	.db #0x00	; 0
	.db #0x00	; 0
	.db #0x00	; 0
	.db #0x00	; 0
	.db #0x00	; 0
	.db #0x00	; 0
	.db #0x01	; 1
	.db #0x01	; 1
	.db #0x09	; 9
	.db #0x19	; 25
	.db #0x3f	; 63
	.db #0x0f	; 15
	.db #0x0f	; 15
	.db #0x07	; 7
	.db #0x07	; 7
	.db #0x07	; 7
	.db #0x01	; 1
	.db #0x01	; 1
	.db #0x00	; 0
	.db #0x00	; 0
	.db #0x02	; 2
	.db #0x02	; 2
	.db #0x01	; 1
	.db #0x01	; 1
	.db #0x00	; 0
	.db #0x00	; 0
	.db #0x00	; 0
	.db #0x00	; 0
	.db #0x00	; 0
	.db #0x00	; 0
	.db #0x00	; 0
	.db #0x00	; 0
	.db #0x00	; 0
	.db #0x00	; 0
	.db #0x7f	; 127
	.db #0x7f	; 127
	.db #0xf0	; 240
	.db #0xfe	; 254
	.db #0xfc	; 252
	.db #0xfc	; 252
	.db #0xe0	; 224
	.db #0xfc	; 252
	.db #0xf8	; 248
	.db #0xf8	; 248
	.db #0xc0	; 192
	.db #0xf8	; 248
	.db #0xe0	; 224
	.db #0xe0	; 224
	.db #0xe0	; 224
	.db #0xe0	; 224
	.db #0xc0	; 192
	.db #0xc0	; 192
	.db #0xc0	; 192
	.db #0xc0	; 192
	.db #0x80	; 128
	.db #0x80	; 128
	.db #0x80	; 128
	.db #0x80	; 128
	.db #0x40	; 64
	.db #0x40	; 64
	.db #0x00	; 0
	.db #0x00	; 0
	.db #0x00	; 0
	.db #0x03	; 3
	.db #0x01	; 1
	.db #0x07	; 7
	.db #0x03	; 3
	.db #0x0e	; 14
	.db #0x05	; 5
	.db #0x1e	; 30
	.db #0x03	; 3
	.db #0x1e	; 30
	.db #0x05	; 5
	.db #0x1f	; 31
	.db #0x03	; 3
	.db #0x1f	; 31
	.db #0x03	; 3
	.db #0x1c	; 28
	.db #0x03	; 3
	.db #0x1d	; 29
	.db #0x03	; 3
	.db #0x1f	; 31
	.db #0x03	; 3
	.db #0x1c	; 28
	.db #0x03	; 3
	.db #0x3f	; 63
	.db #0x03	; 3
	.db #0x0f	; 15
	.db #0x06	; 6
	.db #0x06	; 6
	.db #0x04	; 4
	.db #0x04	; 4
	.db #0x00	; 0
	.db #0x00	; 0
	.db #0x00	; 0
	.db #0xc0	; 192
	.db #0x00	; 0
	.db #0xe0	; 224
	.db #0xe0	; 224
	.db #0x00	; 0
	.db #0x40	; 64
	.db #0xa0	; 160
	.db #0xe0	; 224
	.db #0x00	; 0
	.db #0xe0	; 224
	.db #0x20	; 32
	.db #0xa0	; 160
	.db #0xe0	; 224
	.db #0xb8	; 184
	.db #0xe0	; 224
	.db #0xb0	; 176
	.db #0xe0	; 224
	.db #0xa0	; 160
	.db #0xe0	; 224
	.db #0xe0	; 224
	.db #0x00	; 0
	.db #0xe0	; 224
	.db #0xe0	; 224
	.db #0x20	; 32
	.db #0x20	; 32
	.db #0x20	; 32
	.db #0x20	; 32
	.db #0x30	; 48	'0'
	.db #0x30	; 48	'0'
	.db #0x00	; 0
	.db #0x00	; 0
	.db #0x00	; 0
	.db #0x00	; 0
	.db #0x00	; 0
	.db #0x00	; 0
	.db #0x00	; 0
	.db #0x00	; 0
	.db #0x00	; 0
	.db #0x00	; 0
	.db #0x00	; 0
	.db #0x00	; 0
	.db #0x7f	; 127
	.db #0x7f	; 127
	.db #0xff	; 255
	.db #0x80	; 128
	.db #0xaa	; 170
	.db #0xd5	; 213
	.db #0xd5	; 213
	.db #0xaa	; 170
	.db #0xff	; 255
	.db #0xff	; 255
	.db #0x00	; 0
	.db #0x00	; 0
	.db #0x00	; 0
	.db #0x00	; 0
	.db #0x00	; 0
	.db #0x00	; 0
	.db #0x00	; 0
	.db #0x00	; 0
	.db #0x00	; 0
	.db #0x00	; 0
	.db #0x00	; 0
	.db #0x00	; 0
	.db #0x00	; 0
	.db #0x00	; 0
	.db #0x00	; 0
	.db #0x00	; 0
	.db #0x00	; 0
	.db #0x00	; 0
	.db #0x00	; 0
	.db #0x00	; 0
	.db #0x00	; 0
	.db #0x00	; 0
	.db #0xfe	; 254
	.db #0xfe	; 254
	.db #0xff	; 255
	.db #0x01	; 1
	.db #0x81	; 129
	.db #0x7f	; 127
	.db #0x01	; 1
	.db #0xff	; 255
	.db #0xff	; 255
	.db #0xff	; 255
	.db #0x00	; 0
	.db #0x00	; 0
	.db #0x00	; 0
	.db #0x00	; 0
	.db #0x00	; 0
	.db #0x00	; 0
	.db #0x00	; 0
	.db #0x00	; 0
	.db #0x00	; 0
	.db #0x00	; 0
	.db #0x00	; 0
	.db #0x00	; 0
	.db #0x00	; 0
	.db #0x00	; 0
	.db #0x00	; 0
	.db #0x00	; 0
	.db #0x00	; 0
	.db #0x00	; 0
	.db #0x00	; 0
	.db #0x00	; 0
	.db #0x00	; 0
	.db #0x00	; 0
	.db #0x7f	; 127
	.db #0x7f	; 127
	.db #0xff	; 255
	.db #0xf8	; 248
	.db #0xfa	; 250
	.db #0xfd	; 253
	.db #0xfd	; 253
	.db #0xfa	; 250
	.db #0xff	; 255
	.db #0xff	; 255
	.db #0x00	; 0
	.db #0x00	; 0
	.db #0x00	; 0
	.db #0x00	; 0
	.db #0x00	; 0
	.db #0x00	; 0
	.db #0x00	; 0
	.db #0x00	; 0
	.db #0x00	; 0
	.db #0x00	; 0
	.db #0x00	; 0
	.db #0x00	; 0
	.db #0x00	; 0
	.db #0x00	; 0
	.db #0x00	; 0
	.db #0x00	; 0
	.db #0x00	; 0
	.db #0x00	; 0
	.db #0x00	; 0
	.db #0x00	; 0
	.db #0x00	; 0
	.db #0x00	; 0
	.db #0xfe	; 254
	.db #0xfe	; 254
	.db #0xff	; 255
	.db #0x01	; 1
	.db #0x81	; 129
	.db #0x7f	; 127
	.db #0x01	; 1
	.db #0xff	; 255
	.db #0xff	; 255
	.db #0xff	; 255
	.db #0x00	; 0
	.db #0x00	; 0
	.db #0x00	; 0
	.db #0x00	; 0
	.db #0x00	; 0
	.db #0x00	; 0
	.db #0x00	; 0
	.db #0x00	; 0
	.db #0x00	; 0
	.db #0x00	; 0
	.db #0x00	; 0
	.db #0x00	; 0
	.db #0x00	; 0
	.db #0x00	; 0
	.db #0x00	; 0
	.db #0x00	; 0
	.db #0x00	; 0
	.db #0x00	; 0
	.db #0x00	; 0
	.db #0x00	; 0
	.db #0x00	; 0
	.db #0x00	; 0
	.db #0x7f	; 127
	.db #0x7f	; 127
	.db #0xff	; 255
	.db #0xff	; 255
	.db #0xff	; 255
	.db #0xff	; 255
	.db #0xff	; 255
	.db #0xff	; 255
	.db #0xff	; 255
	.db #0xff	; 255
	.db #0x00	; 0
	.db #0x00	; 0
	.db #0x00	; 0
	.db #0x00	; 0
	.db #0x00	; 0
	.db #0x00	; 0
	.db #0x00	; 0
	.db #0x00	; 0
	.db #0x00	; 0
	.db #0x00	; 0
	.db #0x00	; 0
	.db #0x00	; 0
	.db #0x00	; 0
	.db #0x00	; 0
	.db #0x00	; 0
	.db #0x00	; 0
	.db #0x00	; 0
	.db #0x00	; 0
	.db #0x00	; 0
	.db #0x00	; 0
	.db #0x00	; 0
	.db #0x00	; 0
	.db #0xfe	; 254
	.db #0xfe	; 254
	.db #0xff	; 255
	.db #0x01	; 1
	.db #0x81	; 129
	.db #0x7f	; 127
	.db #0x01	; 1
	.db #0xff	; 255
	.db #0xff	; 255
	.db #0xff	; 255
	.db #0x00	; 0
	.db #0x00	; 0
	.db #0x00	; 0
	.db #0x00	; 0
	.db #0x00	; 0
	.db #0x00	; 0
	.db #0x00	; 0
	.db #0x00	; 0
	.db #0x00	; 0
	.db #0x00	; 0
	.db #0x00	; 0
	.db #0x00	; 0
	.db #0x00	; 0
	.db #0x00	; 0
	.db #0x00	; 0
	.db #0x00	; 0
	.db #0x00	; 0
	.db #0x00	; 0
	.db #0x00	; 0
	.db #0x00	; 0
	.db #0x00	; 0
	.db #0x00	; 0
	.db #0x7f	; 127
	.db #0x7f	; 127
	.db #0xff	; 255
	.db #0xff	; 255
	.db #0xff	; 255
	.db #0xff	; 255
	.db #0xff	; 255
	.db #0xff	; 255
	.db #0xff	; 255
	.db #0xff	; 255
	.db #0x00	; 0
	.db #0x00	; 0
	.db #0x00	; 0
	.db #0x00	; 0
	.db #0x00	; 0
	.db #0x00	; 0
	.db #0x00	; 0
	.db #0x00	; 0
	.db #0x00	; 0
	.db #0x00	; 0
	.db #0x00	; 0
	.db #0x00	; 0
	.db #0x00	; 0
	.db #0x00	; 0
	.db #0x00	; 0
	.db #0x00	; 0
	.db #0x00	; 0
	.db #0x00	; 0
	.db #0x00	; 0
	.db #0x00	; 0
	.db #0x00	; 0
	.db #0x00	; 0
	.db #0xfe	; 254
	.db #0xfe	; 254
	.db #0xff	; 255
	.db #0xf1	; 241
	.db #0xf1	; 241
	.db #0xff	; 255
	.db #0xf1	; 241
	.db #0xff	; 255
	.db #0xff	; 255
	.db #0xff	; 255
	.db #0x00	; 0
	.db #0x00	; 0
	.db #0x00	; 0
	.db #0x00	; 0
	.db #0x00	; 0
	.db #0x00	; 0
	.db #0x00	; 0
	.db #0x00	; 0
	.db #0x00	; 0
	.db #0x00	; 0
__xinit__platform:
	.db #0x19	; 25
	.db #0x1a	; 26
	.db #0x1b	; 27
	.area _CABS (ABS)
